(dp0
L325028L
(dp1
S'lhc:beamenergy'
p2
(lp3
(dp4
S'lastlb'
p5
I1
sS'accepted'
p6
I01
sS'firstlb'
p7
I1
sS'value'
p8
S'6499.44'
p9
sa(dp10
g5
I1
sg6
I01
sg7
I2
sg8
S'6499.56'
p11
sa(dp12
g5
I1
sg6
I01
sg7
I2
sg8
S'6499.44'
p13
sa(dp14
g5
I1
sg6
I01
sg7
I2
sg8
S'6499.56'
p15
sa(dp16
g5
I1
sg6
I01
sg7
I2
sg8
S'6499.44'
p17
sa(dp18
g5
I1
sg6
I01
sg7
I2
sg8
S'6499.56'
p19
sa(dp20
g5
I1
sg6
I01
sg7
I2
sg8
S'6499.44'
p21
sa(dp22
g5
I1
sg6
I01
sg7
I2
sg8
S'6499.56'
p23
sa(dp24
g5
I1
sg6
I01
sg7
I2
sg8
S'6499.44'
p25
sa(dp26
g5
I1
sg6
I01
sg7
I2
sg8
S'6499.32'
p27
sa(dp28
g5
I2
sg6
I01
sg7
I2
sg8
S'6499.44'
p29
sa(dp30
g5
I3
sg6
I01
sg7
I3
sg8
S'6499.56'
p31
sa(dp32
g5
I3
sg6
I01
sg7
I4
sg8
S'6499.44'
p33
sa(dp34
g5
I3
sg6
I01
sg7
I4
sg8
S'6499.32'
p35
sa(dp36
g5
I3
sg6
I01
sg7
I4
sg8
S'6499.44'
p37
sa(dp38
g5
I3
sg6
I01
sg7
I4
sg8
S'6499.56'
p39
sa(dp40
g5
I4
sg6
I01
sg7
I4
sg8
S'6499.44'
p41
sa(dp42
g5
I5
sg6
I01
sg7
I5
sg8
S'6499.56'
p43
sa(dp44
g5
I5
sg6
I01
sg7
I6
sg8
S'6499.44'
p45
sa(dp46
g5
I5
sg6
I01
sg7
I6
sg8
S'6499.56'
p47
sa(dp48
g5
I5
sg6
I01
sg7
I6
sg8
S'6499.44'
p49
sa(dp50
g5
I5
sg6
I01
sg7
I6
sg8
S'6499.56'
p51
sa(dp52
g5
I6
sg6
I01
sg7
I6
sg8
S'6499.44'
p53
sa(dp54
g5
I6
sg6
I01
sg7
I7
sg8
S'6499.56'
p55
sa(dp56
g5
I6
sg6
I01
sg7
I7
sg8
S'6499.44'
p57
sa(dp58
g5
I6
sg6
I01
sg7
I7
sg8
S'6499.56'
p59
sa(dp60
g5
I6
sg6
I01
sg7
I7
sg8
S'6499.44'
p61
sa(dp62
g5
I6
sg6
I01
sg7
I7
sg8
S'6499.56'
p63
sa(dp64
g5
I6
sg6
I01
sg7
I7
sg8
S'6499.44'
p65
sa(dp66
g5
I6
sg6
I01
sg7
I7
sg8
S'6499.56'
p67
sa(dp68
g5
I7
sg6
I01
sg7
I7
sg8
S'6499.44'
p69
sa(dp70
g5
I7
sg6
I01
sg7
I8
sg8
S'6499.56'
p71
sa(dp72
g5
I7
sg6
I01
sg7
I8
sg8
S'6499.44'
p73
sa(dp74
g5
I7
sg6
I01
sg7
I8
sg8
S'6499.56'
p75
sa(dp76
g5
I7
sg6
I01
sg7
I8
sg8
S'6499.44'
p77
sa(dp78
g5
I7
sg6
I01
sg7
I8
sg8
S'6499.56'
p79
sa(dp80
g5
I7
sg6
I01
sg7
I8
sg8
S'6499.44'
p81
sa(dp82
g5
I7
sg6
I01
sg7
I8
sg8
S'6499.56'
p83
sa(dp84
g5
I10
sg6
I01
sg7
I8
sg8
S'6499.44'
p85
sa(dp86
g5
I10
sg6
I01
sg7
I11
sg8
S'6499.56'
p87
sa(dp88
g5
I12
sg6
I01
sg7
I11
sg8
S'6499.44'
p89
sa(dp90
g5
I12
sg6
I01
sg7
I13
sg8
S'6499.56'
p91
sa(dp92
g5
I12
sg6
I01
sg7
I13
sg8
S'6499.44'
p93
sa(dp94
g5
I12
sg6
I01
sg7
I13
sg8
S'6499.56'
p95
sa(dp96
g5
I14
sg6
I01
sg7
I13
sg8
S'6499.44'
p97
sa(dp98
g5
I14
sg6
I01
sg7
I15
sg8
S'6499.56'
p99
sa(dp100
g5
I14
sg6
I01
sg7
I15
sg8
S'6499.44'
p101
sa(dp102
g5
I14
sg6
I01
sg7
I15
sg8
S'6499.32'
p103
sa(dp104
g5
I15
sg6
I01
sg7
I15
sg8
S'6499.44'
p105
sa(dp106
g5
I15
sg6
I01
sg7
I16
sg8
S'6499.56'
p107
sa(dp108
g5
I15
sg6
I01
sg7
I16
sg8
S'6499.32'
p109
sa(dp110
g5
I16
sg6
I01
sg7
I16
sg8
S'6499.44'
p111
sa(dp112
g5
I16
sg6
I01
sg7
I17
sg8
S'6499.56'
p113
sa(dp114
g5
I17
sg6
I01
sg7
I17
sg8
S'6499.44'
p115
sa(dp116
g5
I18
sg6
I01
sg7
I18
sg8
S'6499.56'
p117
sa(dp118
g5
I18
sg6
I01
sg7
I19
sg8
S'6499.44'
p119
sa(dp120
g5
I18
sg6
I01
sg7
I19
sg8
S'6499.56'
p121
sa(dp122
g5
I20
sg6
I01
sg7
I19
sg8
S'6499.44'
p123
sa(dp124
g5
I20
sg6
I01
sg7
I21
sg8
S'6499.56'
p125
sa(dp126
g5
I21
sg6
I01
sg7
I21
sg8
S'6499.44'
p127
sa(dp128
g5
I21
sg6
I01
sg7
I22
sg8
S'6499.56'
p129
sa(dp130
g5
I22
sg6
I01
sg7
I22
sg8
S'6499.44'
p131
sa(dp132
g5
I22
sg6
I01
sg7
I23
sg8
S'6499.56'
p133
sa(dp134
g5
I23
sg6
I01
sg7
I23
sg8
S'6499.44'
p135
sa(dp136
g5
I23
sg6
I01
sg7
I24
sg8
S'6499.56'
p137
sa(dp138
g5
I23
sg6
I01
sg7
I24
sg8
S'6499.44'
p139
sa(dp140
g5
I24
sg6
I01
sg7
I24
sg8
S'6499.56'
p141
sa(dp142
g5
I24
sg6
I01
sg7
I25
sg8
S'6499.44'
p143
sa(dp144
g5
I24
sg6
I01
sg7
I25
sg8
S'6499.56'
p145
sa(dp146
g5
I25
sg6
I01
sg7
I25
sg8
S'6499.44'
p147
sa(dp148
g5
I25
sg6
I01
sg7
I26
sg8
S'6499.56'
p149
sa(dp150
g5
I25
sg6
I01
sg7
I26
sg8
S'6499.44'
p151
sa(dp152
g5
I25
sg6
I01
sg7
I26
sg8
S'6499.56'
p153
sa(dp154
g5
I26
sg6
I01
sg7
I26
sg8
S'6499.44'
p155
sa(dp156
g5
I26
sg6
I01
sg7
I27
sg8
S'6499.56'
p157
sa(dp158
g5
I27
sg6
I01
sg7
I27
sg8
S'6499.44'
p159
sa(dp160
g5
I27
sg6
I01
sg7
I28
sg8
S'6499.56'
p161
sa(dp162
g5
I27
sg6
I01
sg7
I28
sg8
S'6499.44'
p163
sa(dp164
g5
I27
sg6
I01
sg7
I28
sg8
S'6499.56'
p165
sa(dp166
g5
I27
sg6
I01
sg7
I28
sg8
S'6499.44'
p167
sa(dp168
g5
I27
sg6
I01
sg7
I28
sg8
S'6499.56'
p169
sa(dp170
g5
I28
sg6
I01
sg7
I28
sg8
S'6499.44'
p171
sa(dp172
g5
I28
sg6
I01
sg7
I29
sg8
S'6499.56'
p173
sa(dp174
g5
I28
sg6
I01
sg7
I29
sg8
S'6499.44'
p175
sa(dp176
g5
I29
sg6
I01
sg7
I29
sg8
S'6499.56'
p177
sa(dp178
g5
I31
sg6
I01
sg7
I30
sg8
S'6499.44'
p179
sa(dp180
g5
I31
sg6
I01
sg7
I32
sg8
S'6499.56'
p181
sa(dp182
g5
I33
sg6
I01
sg7
I32
sg8
S'6499.44'
p183
sa(dp184
g5
I33
sg6
I01
sg7
I34
sg8
S'6499.56'
p185
sa(dp186
g5
I34
sg6
I01
sg7
I34
sg8
S'6499.44'
p187
sa(dp188
g5
I34
sg6
I01
sg7
I35
sg8
S'6499.56'
p189
sa(dp190
g5
I34
sg6
I01
sg7
I35
sg8
S'6499.44'
p191
sa(dp192
g5
I35
sg6
I01
sg7
I35
sg8
S'6499.56'
p193
sa(dp194
g5
I39
sg6
I01
sg7
I36
sg8
S'6499.44'
p195
sa(dp196
g5
I39
sg6
I01
sg7
I40
sg8
S'6499.56'
p197
sa(dp198
g5
I42
sg6
I01
sg7
I40
sg8
S'6499.44'
p199
sa(dp200
g5
I42
sg6
I01
sg7
I43
sg8
S'6499.56'
p201
sa(dp202
g5
I42
sg6
I01
sg7
I43
sg8
S'6499.44'
p203
sa(dp204
g5
I42
sg6
I01
sg7
I43
sg8
S'6499.56'
p205
sa(dp206
g5
I43
sg6
I01
sg7
I43
sg8
S'6499.44'
p207
sa(dp208
g5
I43
sg6
I01
sg7
I44
sg8
S'6499.56'
p209
sa(dp210
g5
I43
sg6
I01
sg7
I44
sg8
S'6499.44'
p211
sa(dp212
g5
I43
sg6
I01
sg7
I44
sg8
S'6499.56'
p213
sa(dp214
g5
I47
sg6
I01
sg7
I44
sg8
S'6499.44'
p215
sa(dp216
g5
I47
sg6
I01
sg7
I48
sg8
S'6499.56'
p217
sa(dp218
g5
I47
sg6
I01
sg7
I48
sg8
S'6499.44'
p219
sa(dp220
g5
I47
sg6
I01
sg7
I48
sg8
S'6499.56'
p221
sa(dp222
g5
I48
sg6
I01
sg7
I48
sg8
S'6499.44'
p223
sa(dp224
g5
I48
sg6
I01
sg7
I49
sg8
S'6499.32'
p225
sa(dp226
g5
I49
sg6
I01
sg7
I49
sg8
S'6499.44'
p227
sa(dp228
g5
I49
sg6
I01
sg7
I50
sg8
S'6499.56'
p229
sa(dp230
g5
I49
sg6
I01
sg7
I50
sg8
S'6499.44'
p231
sa(dp232
g5
I49
sg6
I01
sg7
I50
sg8
S'6499.56'
p233
sa(dp234
g5
I52
sg6
I01
sg7
I50
sg8
S'6499.44'
p235
sa(dp236
g5
I52
sg6
I01
sg7
I53
sg8
S'6499.56'
p237
sa(dp238
g5
I52
sg6
I01
sg7
I53
sg8
S'6499.44'
p239
sa(dp240
g5
I52
sg6
I01
sg7
I53
sg8
S'6499.56'
p241
sa(dp242
g5
I52
sg6
I01
sg7
I53
sg8
S'6499.44'
p243
sa(dp244
g5
I53
sg6
I01
sg7
I53
sg8
S'6499.56'
p245
sa(dp246
g5
I54
sg6
I01
sg7
I54
sg8
S'6499.44'
p247
sa(dp248
g5
I54
sg6
I01
sg7
I55
sg8
S'6499.56'
p249
sa(dp250
g5
I54
sg6
I01
sg7
I55
sg8
S'6499.44'
p251
sa(dp252
g5
I54
sg6
I01
sg7
I55
sg8
S'6499.56'
p253
sa(dp254
g5
I55
sg6
I01
sg7
I55
sg8
S'6499.44'
p255
sa(dp256
g5
I55
sg6
I01
sg7
I56
sg8
S'6499.56'
p257
sa(dp258
g5
I55
sg6
I01
sg7
I56
sg8
S'6499.44'
p259
sa(dp260
g5
I55
sg6
I01
sg7
I56
sg8
S'6499.32'
p261
sa(dp262
g5
I55
sg6
I01
sg7
I56
sg8
S'6499.44'
p263
sa(dp264
g5
I55
sg6
I01
sg7
I56
sg8
S'6499.56'
p265
sa(dp266
g5
I55
sg6
I01
sg7
I56
sg8
S'6499.44'
p267
sa(dp268
g5
I55
sg6
I01
sg7
I56
sg8
S'6499.56'
p269
sa(dp270
g5
I56
sg6
I01
sg7
I56
sg8
S'6499.44'
p271
sa(dp272
g5
I56
sg6
I01
sg7
I57
sg8
S'6499.56'
p273
sa(dp274
g5
I56
sg6
I01
sg7
I57
sg8
S'6499.44'
p275
sa(dp276
g5
I56
sg6
I01
sg7
I57
sg8
S'6499.56'
p277
sa(dp278
g5
I56
sg6
I01
sg7
I57
sg8
S'6499.44'
p279
sa(dp280
g5
I56
sg6
I01
sg7
I57
sg8
S'6499.56'
p281
sa(dp282
g5
I56
sg6
I01
sg7
I57
sg8
S'6499.44'
p283
sa(dp284
g5
I56
sg6
I01
sg7
I57
sg8
S'6499.56'
p285
sa(dp286
g5
I56
sg6
I01
sg7
I57
sg8
S'6499.44'
p287
sa(dp288
g5
I56
sg6
I01
sg7
I57
sg8
S'6499.56'
p289
sa(dp290
g5
I56
sg6
I01
sg7
I57
sg8
S'6499.44'
p291
sa(dp292
g5
I56
sg6
I01
sg7
I57
sg8
S'6499.56'
p293
sa(dp294
g5
I56
sg6
I01
sg7
I57
sg8
S'6499.32'
p295
sa(dp296
g5
I57
sg6
I01
sg7
I57
sg8
S'6499.44'
p297
sa(dp298
g5
I57
sg6
I01
sg7
I58
sg8
S'6499.56'
p299
sa(dp300
g5
I57
sg6
I01
sg7
I58
sg8
S'6499.44'
p301
sa(dp302
g5
I57
sg6
I01
sg7
I58
sg8
S'6499.56'
p303
sa(dp304
g5
I58
sg6
I01
sg7
I58
sg8
S'6499.44'
p305
sa(dp306
g5
I58
sg6
I01
sg7
I59
sg8
S'6499.56'
p307
sa(dp308
g5
I58
sg6
I01
sg7
I59
sg8
S'6499.44'
p309
sa(dp310
g5
I58
sg6
I01
sg7
I59
sg8
S'6499.56'
p311
sa(dp312
g5
I58
sg6
I01
sg7
I59
sg8
S'6499.44'
p313
sa(dp314
g5
I58
sg6
I01
sg7
I59
sg8
S'6499.56'
p315
sa(dp316
g5
I58
sg6
I01
sg7
I59
sg8
S'6499.44'
p317
sa(dp318
g5
I58
sg6
I01
sg7
I59
sg8
S'6499.56'
p319
sa(dp320
g5
I58
sg6
I01
sg7
I59
sg8
S'6499.44'
p321
sa(dp322
g5
I58
sg6
I01
sg7
I59
sg8
S'6499.56'
p323
sa(dp324
g5
I59
sg6
I01
sg7
I59
sg8
S'6499.44'
p325
sa(dp326
g5
I59
sg6
I01
sg7
I60
sg8
S'6499.56'
p327
sa(dp328
g5
I59
sg6
I01
sg7
I60
sg8
S'6499.44'
p329
sa(dp330
g5
I59
sg6
I01
sg7
I60
sg8
S'6499.56'
p331
sa(dp332
g5
I61
sg6
I01
sg7
I60
sg8
S'6499.44'
p333
sa(dp334
g5
I61
sg6
I01
sg7
I62
sg8
S'6499.56'
p335
sa(dp336
g5
I62
sg6
I01
sg7
I62
sg8
S'6499.44'
p337
sa(dp338
g5
I62
sg6
I01
sg7
I63
sg8
S'6499.56'
p339
sa(dp340
g5
I62
sg6
I01
sg7
I63
sg8
S'6499.44'
p341
sa(dp342
g5
I62
sg6
I01
sg7
I63
sg8
S'6499.56'
p343
sa(dp344
g5
I63
sg6
I01
sg7
I63
sg8
S'6499.44'
p345
sa(dp346
g5
I63
sg6
I01
sg7
I64
sg8
S'6499.56'
p347
sa(dp348
g5
I64
sg6
I01
sg7
I64
sg8
S'6499.44'
p349
sa(dp350
g5
I64
sg6
I01
sg7
I65
sg8
S'6499.32'
p351
sa(dp352
g5
I66
sg6
I01
sg7
I65
sg8
S'6499.44'
p353
sa(dp354
g5
I66
sg6
I01
sg7
I67
sg8
S'6499.32'
p355
sa(dp356
g5
I67
sg6
I01
sg7
I67
sg8
S'6499.44'
p357
sa(dp358
g5
I67
sg6
I01
sg7
I68
sg8
S'6499.56'
p359
sa(dp360
g5
I67
sg6
I01
sg7
I68
sg8
S'6499.44'
p361
sa(dp362
g5
I67
sg6
I01
sg7
I68
sg8
S'6499.56'
p363
sa(dp364
g5
I67
sg6
I01
sg7
I68
sg8
S'6499.44'
p365
sa(dp366
g5
I67
sg6
I01
sg7
I68
sg8
S'6499.56'
p367
sa(dp368
g5
I68
sg6
I01
sg7
I68
sg8
S'6499.44'
p369
sa(dp370
g5
I68
sg6
I01
sg7
I69
sg8
S'6499.32'
p371
sa(dp372
g5
I69
sg6
I01
sg7
I69
sg8
S'6499.44'
p373
sa(dp374
g5
I70
sg6
I01
sg7
I70
sg8
S'6499.56'
p375
sa(dp376
g5
I70
sg6
I01
sg7
I71
sg8
S'6499.44'
p377
sa(dp378
g5
I70
sg6
I01
sg7
I71
sg8
S'6499.56'
p379
sa(dp380
g5
I74
sg6
I01
sg7
I71
sg8
S'6499.44'
p381
sa(dp382
g5
I74
sg6
I01
sg7
I75
sg8
S'6499.56'
p383
sa(dp384
g5
I74
sg6
I01
sg7
I75
sg8
S'6499.44'
p385
sa(dp386
g5
I74
sg6
I01
sg7
I75
sg8
S'6499.56'
p387
sa(dp388
g5
I75
sg6
I01
sg7
I75
sg8
S'6499.44'
p389
sa(dp390
g5
I75
sg6
I01
sg7
I76
sg8
S'6499.56'
p391
sa(dp392
g5
I75
sg6
I01
sg7
I76
sg8
S'6499.32'
p393
sa(dp394
g5
I78
sg6
I01
sg7
I76
sg8
S'6499.44'
p395
sa(dp396
g5
I78
sg6
I01
sg7
I79
sg8
S'6499.56'
p397
sa(dp398
g5
I78
sg6
I01
sg7
I79
sg8
S'6499.44'
p399
sa(dp400
g5
I78
sg6
I01
sg7
I79
sg8
S'6499.32'
p401
sa(dp402
g5
I79
sg6
I01
sg7
I79
sg8
S'6499.44'
p403
sa(dp404
g5
I79
sg6
I01
sg7
I80
sg8
S'6499.56'
p405
sa(dp406
g5
I83
sg6
I01
sg7
I80
sg8
S'6499.44'
p407
sa(dp408
g5
I83
sg6
I01
sg7
I84
sg8
S'6499.56'
p409
sa(dp410
g5
I84
sg6
I01
sg7
I84
sg8
S'6499.44'
p411
sa(dp412
g5
I84
sg6
I01
sg7
I85
sg8
S'6499.56'
p413
sa(dp414
g5
I90
sg6
I01
sg7
I85
sg8
S'6499.44'
p415
sa(dp416
g5
I90
sg6
I01
sg7
I91
sg8
S'6499.32'
p417
sa(dp418
g5
I91
sg6
I01
sg7
I91
sg8
S'6499.44'
p419
sa(dp420
g5
I91
sg6
I01
sg7
I92
sg8
S'6499.56'
p421
sa(dp422
g5
I92
sg6
I01
sg7
I92
sg8
S'6499.44'
p423
sa(dp424
g5
I93
sg6
I01
sg7
I93
sg8
S'6499.56'
p425
sa(dp426
g5
I93
sg6
I01
sg7
I94
sg8
S'6499.44'
p427
sa(dp428
g5
I93
sg6
I01
sg7
I94
sg8
S'6499.56'
p429
sa(dp430
g5
I93
sg6
I01
sg7
I94
sg8
S'6499.44'
p431
sa(dp432
g5
I93
sg6
I01
sg7
I94
sg8
S'6499.56'
p433
sa(dp434
g5
I94
sg6
I01
sg7
I94
sg8
S'6499.44'
p435
sa(dp436
g5
I94
sg6
I01
sg7
I95
sg8
S'6499.56'
p437
sa(dp438
g5
I94
sg6
I01
sg7
I95
sg8
S'6499.44'
p439
sa(dp440
g5
I94
sg6
I01
sg7
I95
sg8
S'6499.56'
p441
sa(dp442
g5
I94
sg6
I01
sg7
I95
sg8
S'6499.44'
p443
sa(dp444
g5
I94
sg6
I01
sg7
I95
sg8
S'6499.56'
p445
sa(dp446
g5
I94
sg6
I01
sg7
I95
sg8
S'6499.44'
p447
sa(dp448
g5
I95
sg6
I01
sg7
I95
sg8
S'6499.56'
p449
sa(dp450
g5
I95
sg6
I01
sg7
I96
sg8
S'6499.44'
p451
sa(dp452
g5
I95
sg6
I01
sg7
I96
sg8
S'6499.56'
p453
sa(dp454
g5
I95
sg6
I01
sg7
I96
sg8
S'6499.44'
p455
sa(dp456
g5
I95
sg6
I01
sg7
I96
sg8
S'6499.56'
p457
sa(dp458
g5
I96
sg6
I01
sg7
I96
sg8
S'6499.44'
p459
sa(dp460
g5
I96
sg6
I01
sg7
I97
sg8
S'6499.56'
p461
sa(dp462
g5
I96
sg6
I01
sg7
I97
sg8
S'6499.44'
p463
sa(dp464
g5
I96
sg6
I01
sg7
I97
sg8
S'6499.56'
p465
sa(dp466
g5
I97
sg6
I01
sg7
I97
sg8
S'6499.44'
p467
sa(dp468
g5
I97
sg6
I01
sg7
I98
sg8
S'6499.56'
p469
sa(dp470
g5
I97
sg6
I01
sg7
I98
sg8
S'6499.44'
p471
sa(dp472
g5
I98
sg6
I01
sg7
I98
sg8
S'6499.56'
p473
sa(dp474
g5
I98
sg6
I01
sg7
I99
sg8
S'6499.44'
p475
sa(dp476
g5
I98
sg6
I01
sg7
I99
sg8
S'6499.56'
p477
sa(dp478
g5
I99
sg6
I01
sg7
I99
sg8
S'6499.44'
p479
sa(dp480
g5
I99
sg6
I01
sg7
I100
sg8
S'6499.56'
p481
sa(dp482
g5
I99
sg6
I01
sg7
I100
sg8
S'6499.32'
p483
sa(dp484
g5
I100
sg6
I01
sg7
I100
sg8
S'6499.44'
p485
sa(dp486
g5
I100
sg6
I01
sg7
I101
sg8
S'6499.32'
p487
sa(dp488
g5
I100
sg6
I01
sg7
I101
sg8
S'6499.56'
p489
sa(dp490
g5
I103
sg6
I01
sg7
I101
sg8
S'6499.44'
p491
sa(dp492
g5
I104
sg6
I01
sg7
I104
sg8
S'6499.56'
p493
sa(dp494
g5
I105
sg6
I01
sg7
I105
sg8
S'6499.44'
p495
sa(dp496
g5
I105
sg6
I01
sg7
I106
sg8
S'6499.56'
p497
sa(dp498
g5
I106
sg6
I01
sg7
I106
sg8
S'6499.44'
p499
sa(dp500
g5
I106
sg6
I01
sg7
I107
sg8
S'6499.32'
p501
sa(dp502
g5
I108
sg6
I01
sg7
I107
sg8
S'6499.44'
p503
sa(dp504
g5
I108
sg6
I01
sg7
I109
sg8
S'6499.56'
p505
sa(dp506
g5
I109
sg6
I01
sg7
I109
sg8
S'6499.44'
p507
sa(dp508
g5
I109
sg6
I01
sg7
I110
sg8
S'6499.32'
p509
sa(dp510
g5
I110
sg6
I01
sg7
I110
sg8
S'6499.44'
p511
sa(dp512
g5
I110
sg6
I01
sg7
I111
sg8
S'6499.56'
p513
sa(dp514
g5
I112
sg6
I01
sg7
I111
sg8
S'6499.44'
p515
sa(dp516
g5
I112
sg6
I01
sg7
I113
sg8
S'6499.56'
p517
sa(dp518
g5
I115
sg6
I01
sg7
I113
sg8
S'6499.44'
p519
sa(dp520
g5
I115
sg6
I01
sg7
I116
sg8
S'6499.56'
p521
sa(dp522
g5
I117
sg6
I01
sg7
I116
sg8
S'6499.44'
p523
sa(dp524
g5
I117
sg6
I01
sg7
I118
sg8
S'6499.56'
p525
sa(dp526
g5
I117
sg6
I01
sg7
I118
sg8
S'6499.44'
p527
sa(dp528
g5
I117
sg6
I01
sg7
I118
sg8
S'6499.56'
p529
sa(dp530
g5
I118
sg6
I01
sg7
I118
sg8
S'6499.44'
p531
sa(dp532
g5
I118
sg6
I01
sg7
I119
sg8
S'6499.56'
p533
sa(dp534
g5
I121
sg6
I01
sg7
I119
sg8
S'6499.44'
p535
sa(dp536
g5
I121
sg6
I01
sg7
I122
sg8
S'6499.56'
p537
sa(dp538
g5
I121
sg6
I01
sg7
I122
sg8
S'6499.44'
p539
sa(dp540
g5
I121
sg6
I01
sg7
I122
sg8
S'6499.56'
p541
sa(dp542
g5
I122
sg6
I01
sg7
I122
sg8
S'6499.44'
p543
sa(dp544
g5
I122
sg6
I01
sg7
I123
sg8
S'6499.56'
p545
sa(dp546
g5
I123
sg6
I01
sg7
I123
sg8
S'6499.44'
p547
sa(dp548
g5
I123
sg6
I01
sg7
I124
sg8
S'6499.56'
p549
sa(dp550
g5
I124
sg6
I01
sg7
I124
sg8
S'6499.44'
p551
sa(dp552
g5
I124
sg6
I01
sg7
I125
sg8
S'6499.56'
p553
sa(dp554
g5
I124
sg6
I01
sg7
I125
sg8
S'6499.44'
p555
sa(dp556
g5
I124
sg6
I01
sg7
I125
sg8
S'6499.56'
p557
sa(dp558
g5
I124
sg6
I01
sg7
I125
sg8
S'6499.44'
p559
sa(dp560
g5
I124
sg6
I01
sg7
I125
sg8
S'6499.56'
p561
sa(dp562
g5
I124
sg6
I01
sg7
I125
sg8
S'6499.44'
p563
sa(dp564
g5
I124
sg6
I01
sg7
I125
sg8
S'6499.56'
p565
sa(dp566
g5
I124
sg6
I01
sg7
I125
sg8
S'6499.44'
p567
sa(dp568
g5
I125
sg6
I01
sg7
I125
sg8
S'6499.56'
p569
sa(dp570
g5
I126
sg6
I01
sg7
I126
sg8
S'6499.44'
p571
sa(dp572
g5
I126
sg6
I01
sg7
I127
sg8
S'6499.56'
p573
sa(dp574
g5
I128
sg6
I01
sg7
I127
sg8
S'6499.44'
p575
sa(dp576
g5
I128
sg6
I01
sg7
I129
sg8
S'6499.56'
p577
sa(dp578
g5
I129
sg6
I01
sg7
I129
sg8
S'6499.44'
p579
sa(dp580
g5
I129
sg6
I01
sg7
I130
sg8
S'6499.56'
p581
sa(dp582
g5
I130
sg6
I01
sg7
I130
sg8
S'6499.44'
p583
sa(dp584
g5
I130
sg6
I01
sg7
I131
sg8
S'6499.56'
p585
sa(dp586
g5
I131
sg6
I01
sg7
I131
sg8
S'6499.44'
p587
sa(dp588
g5
I131
sg6
I01
sg7
I132
sg8
S'6499.32'
p589
sa(dp590
g5
I132
sg6
I01
sg7
I132
sg8
S'6499.44'
p591
sa(dp592
g5
I132
sg6
I01
sg7
I133
sg8
S'6499.56'
p593
sa(dp594
g5
I132
sg6
I01
sg7
I133
sg8
S'6499.44'
p595
sa(dp596
g5
I132
sg6
I01
sg7
I133
sg8
S'6499.56'
p597
sa(dp598
g5
I133
sg6
I01
sg7
I133
sg8
S'6499.44'
p599
sa(dp600
g5
I133
sg6
I01
sg7
I134
sg8
S'6499.32'
p601
sa(dp602
g5
I134
sg6
I01
sg7
I134
sg8
S'6499.44'
p603
sa(dp604
g5
I134
sg6
I01
sg7
I135
sg8
S'6499.56'
p605
sa(dp606
g5
I134
sg6
I01
sg7
I135
sg8
S'6499.44'
p607
sa(dp608
g5
I135
sg6
I01
sg7
I135
sg8
S'6499.56'
p609
sa(dp610
g5
I135
sg6
I01
sg7
I136
sg8
S'6499.44'
p611
sa(dp612
g5
I135
sg6
I01
sg7
I136
sg8
S'6499.32'
p613
sa(dp614
g5
I139
sg6
I01
sg7
I136
sg8
S'6499.44'
p615
sa(dp616
g5
I139
sg6
I01
sg7
I140
sg8
S'6499.56'
p617
sa(dp618
g5
I139
sg6
I01
sg7
I140
sg8
S'6499.44'
p619
sa(dp620
g5
I139
sg6
I01
sg7
I140
sg8
S'6499.56'
p621
sa(dp622
g5
I140
sg6
I01
sg7
I140
sg8
S'6499.44'
p623
sa(dp624
g5
I140
sg6
I01
sg7
I141
sg8
S'6499.56'
p625
sa(dp626
g5
I141
sg6
I01
sg7
I141
sg8
S'6499.44'
p627
sa(dp628
g5
I141
sg6
I01
sg7
I142
sg8
S'6499.56'
p629
sa(dp630
g5
I141
sg6
I01
sg7
I142
sg8
S'6499.44'
p631
sa(dp632
g5
I141
sg6
I01
sg7
I142
sg8
S'6499.56'
p633
sa(dp634
g5
I142
sg6
I01
sg7
I142
sg8
S'6499.44'
p635
sa(dp636
g5
I142
sg6
I01
sg7
I143
sg8
S'6499.56'
p637
sa(dp638
g5
I143
sg6
I01
sg7
I143
sg8
S'6499.44'
p639
sa(dp640
g5
I143
sg6
I01
sg7
I144
sg8
S'6499.56'
p641
sa(dp642
g5
I145
sg6
I01
sg7
I144
sg8
S'6499.44'
p643
sa(dp644
g5
I145
sg6
I01
sg7
I146
sg8
S'6499.56'
p645
sa(dp646
g5
I147
sg6
I01
sg7
I146
sg8
S'6499.44'
p647
sa(dp648
g5
I147
sg6
I01
sg7
I148
sg8
S'6499.56'
p649
sa(dp650
g5
I148
sg6
I01
sg7
I148
sg8
S'6499.44'
p651
sa(dp652
g5
I148
sg6
I01
sg7
I149
sg8
S'6499.56'
p653
sa(dp654
g5
I149
sg6
I01
sg7
I149
sg8
S'6499.44'
p655
sa(dp656
g5
I149
sg6
I01
sg7
I150
sg8
S'6499.56'
p657
sa(dp658
g5
I149
sg6
I01
sg7
I150
sg8
S'6499.44'
p659
sa(dp660
g5
I149
sg6
I01
sg7
I150
sg8
S'6499.56'
p661
sa(dp662
g5
I150
sg6
I01
sg7
I150
sg8
S'6499.44'
p663
sa(dp664
g5
I150
sg6
I01
sg7
I151
sg8
S'6499.56'
p665
sa(dp666
g5
I154
sg6
I01
sg7
I151
sg8
S'6499.44'
p667
sa(dp668
g5
I154
sg6
I01
sg7
I155
sg8
S'6499.56'
p669
sa(dp670
g5
I157
sg6
I01
sg7
I155
sg8
S'6499.44'
p671
sa(dp672
g5
I157
sg6
I01
sg7
I158
sg8
S'6499.32'
p673
sa(dp674
g5
I158
sg6
I01
sg7
I158
sg8
S'6499.44'
p675
sa(dp676
g5
I158
sg6
I01
sg7
I159
sg8
S'6499.56'
p677
sa(dp678
g5
I158
sg6
I01
sg7
I159
sg8
S'6499.44'
p679
sa(dp680
g5
I158
sg6
I01
sg7
I159
sg8
S'6499.56'
p681
sa(dp682
g5
I160
sg6
I01
sg7
I159
sg8
S'6499.44'
p683
sa(dp684
g5
I160
sg6
I01
sg7
I161
sg8
S'6499.56'
p685
sa(dp686
g5
I161
sg6
I01
sg7
I161
sg8
S'6499.44'
p687
sa(dp688
g5
I161
sg6
I01
sg7
I162
sg8
S'6499.56'
p689
sa(dp690
g5
I162
sg6
I01
sg7
I162
sg8
S'6499.44'
p691
sa(dp692
g5
I162
sg6
I01
sg7
I163
sg8
S'6499.56'
p693
sa(dp694
g5
I164
sg6
I01
sg7
I163
sg8
S'6499.44'
p695
sa(dp696
g5
I164
sg6
I01
sg7
I165
sg8
S'6499.56'
p697
sa(dp698
g5
I168
sg6
I01
sg7
I165
sg8
S'6499.44'
p699
sa(dp700
g5
I168
sg6
I01
sg7
I169
sg8
S'6499.32'
p701
sa(dp702
g5
I169
sg6
I01
sg7
I169
sg8
S'6499.44'
p703
sa(dp704
g5
I169
sg6
I01
sg7
I170
sg8
S'6499.32'
p705
sa(dp706
g5
I169
sg6
I01
sg7
I170
sg8
S'6499.44'
p707
sa(dp708
g5
I169
sg6
I01
sg7
I170
sg8
S'6499.56'
p709
sa(dp710
g5
I169
sg6
I01
sg7
I170
sg8
S'6499.44'
p711
sa(dp712
g5
I169
sg6
I01
sg7
I170
sg8
S'6499.32'
p713
sa(dp714
g5
I169
sg6
I01
sg7
I170
sg8
S'6499.44'
p715
sa(dp716
g5
I169
sg6
I01
sg7
I170
sg8
S'6499.56'
p717
sa(dp718
g5
I170
sg6
I01
sg7
I170
sg8
S'6499.44'
p719
sa(dp720
g5
I170
sg6
I01
sg7
I171
sg8
S'6499.32'
p721
sa(dp722
g5
I170
sg6
I01
sg7
I171
sg8
S'6499.44'
p723
sa(dp724
g5
I170
sg6
I01
sg7
I171
sg8
S'6499.32'
p725
sa(dp726
g5
I170
sg6
I01
sg7
I171
sg8
S'6499.44'
p727
sa(dp728
g5
I170
sg6
I01
sg7
I171
sg8
S'6499.56'
p729
sa(dp730
g5
I170
sg6
I01
sg7
I171
sg8
S'6499.44'
p731
sa(dp732
g5
I170
sg6
I01
sg7
I171
sg8
S'6499.32'
p733
sa(dp734
g5
I171
sg6
I01
sg7
I171
sg8
S'6499.44'
p735
sa(dp736
g5
I171
sg6
I01
sg7
I172
sg8
S'6499.56'
p737
sa(dp738
g5
I171
sg6
I01
sg7
I172
sg8
S'6499.44'
p739
sa(dp740
g5
I171
sg6
I01
sg7
I172
sg8
S'6499.56'
p741
sa(dp742
g5
I171
sg6
I01
sg7
I172
sg8
S'6499.44'
p743
sa(dp744
g5
I171
sg6
I01
sg7
I172
sg8
S'6499.56'
p745
sa(dp746
g5
I172
sg6
I01
sg7
I172
sg8
S'6499.44'
p747
sa(dp748
g5
I172
sg6
I01
sg7
I173
sg8
S'6499.56'
p749
sa(dp750
g5
I174
sg6
I01
sg7
I173
sg8
S'6499.44'
p751
sa(dp752
g5
I174
sg6
I01
sg7
I175
sg8
S'6499.56'
p753
sa(dp754
g5
I174
sg6
I01
sg7
I175
sg8
S'6499.44'
p755
sa(dp756
g5
I174
sg6
I01
sg7
I175
sg8
S'6499.56'
p757
sa(dp758
g5
I174
sg6
I01
sg7
I175
sg8
S'6499.44'
p759
sa(dp760
g5
I174
sg6
I01
sg7
I175
sg8
S'6499.56'
p761
sa(dp762
g5
I176
sg6
I01
sg7
I175
sg8
S'6499.44'
p763
sa(dp764
g5
I176
sg6
I01
sg7
I177
sg8
S'6499.56'
p765
sa(dp766
g5
I176
sg6
I01
sg7
I177
sg8
S'6499.44'
p767
sa(dp768
g5
I176
sg6
I01
sg7
I177
sg8
S'6499.56'
p769
sa(dp770
g5
I176
sg6
I01
sg7
I177
sg8
S'6499.44'
p771
sa(dp772
g5
I176
sg6
I01
sg7
I177
sg8
S'6499.56'
p773
sa(dp774
g5
I176
sg6
I01
sg7
I177
sg8
S'6499.44'
p775
sa(dp776
g5
I176
sg6
I01
sg7
I177
sg8
S'6499.56'
p777
sa(dp778
g5
I176
sg6
I01
sg7
I177
sg8
S'6499.44'
p779
sa(dp780
g5
I176
sg6
I01
sg7
I177
sg8
S'6499.56'
p781
sa(dp782
g5
I177
sg6
I01
sg7
I177
sg8
S'6499.44'
p783
sa(dp784
g5
I177
sg6
I01
sg7
I178
sg8
S'6499.56'
p785
sa(dp786
g5
I177
sg6
I01
sg7
I178
sg8
S'6499.44'
p787
sa(dp788
g5
I177
sg6
I01
sg7
I178
sg8
S'6499.32'
p789
sa(dp790
g5
I177
sg6
I01
sg7
I178
sg8
S'6499.44'
p791
sa(dp792
g5
I178
sg6
I01
sg7
I178
sg8
S'6499.32'
p793
sa(dp794
g5
I181
sg6
I01
sg7
I179
sg8
S'6499.44'
p795
sa(dp796
g5
I181
sg6
I01
sg7
I182
sg8
S'6499.32'
p797
sa(dp798
g5
I182
sg6
I01
sg7
I182
sg8
S'6499.44'
p799
sa(dp800
g5
I182
sg6
I01
sg7
I183
sg8
S'6499.32'
p801
sa(dp802
g5
I182
sg6
I01
sg7
I183
sg8
S'6499.44'
p803
sa(dp804
g5
I182
sg6
I01
sg7
I183
sg8
S'6499.32'
p805
sa(dp806
g5
I182
sg6
I01
sg7
I183
sg8
S'6499.44'
p807
sa(dp808
g5
I182
sg6
I01
sg7
I183
sg8
S'6499.56'
p809
sa(dp810
g5
I182
sg6
I01
sg7
I183
sg8
S'6499.44'
p811
sa(dp812
g5
I182
sg6
I01
sg7
I183
sg8
S'6499.32'
p813
sa(dp814
g5
I182
sg6
I01
sg7
I183
sg8
S'6499.44'
p815
sa(dp816
g5
I182
sg6
I01
sg7
I183
sg8
S'6499.56'
p817
sa(dp818
g5
I182
sg6
I01
sg7
I183
sg8
S'6499.32'
p819
sa(dp820
g5
I182
sg6
I01
sg7
I183
sg8
S'6499.44'
p821
sa(dp822
g5
I182
sg6
I01
sg7
I183
sg8
S'6499.32'
p823
sa(dp824
g5
I183
sg6
I01
sg7
I183
sg8
S'6499.44'
p825
sa(dp826
g5
I183
sg6
I01
sg7
I184
sg8
S'6499.32'
p827
sa(dp828
g5
I183
sg6
I01
sg7
I184
sg8
S'6499.44'
p829
sa(dp830
g5
I183
sg6
I01
sg7
I184
sg8
S'6499.56'
p831
sa(dp832
g5
I184
sg6
I01
sg7
I184
sg8
S'6499.44'
p833
sa(dp834
g5
I184
sg6
I01
sg7
I185
sg8
S'6499.56'
p835
sa(dp836
g5
I184
sg6
I01
sg7
I185
sg8
S'6499.44'
p837
sa(dp838
g5
I184
sg6
I01
sg7
I185
sg8
S'6499.56'
p839
sa(dp840
g5
I185
sg6
I01
sg7
I185
sg8
S'6499.44'
p841
sa(dp842
g5
I185
sg6
I01
sg7
I186
sg8
S'6499.32'
p843
sa(dp844
g5
I185
sg6
I01
sg7
I186
sg8
S'6499.44'
p845
sa(dp846
g5
I185
sg6
I01
sg7
I186
sg8
S'6499.56'
p847
sa(dp848
g5
I185
sg6
I01
sg7
I186
sg8
S'6499.44'
p849
sa(dp850
g5
I185
sg6
I01
sg7
I186
sg8
S'6499.56'
p851
sa(dp852
g5
I185
sg6
I01
sg7
I186
sg8
S'6499.44'
p853
sa(dp854
g5
I185
sg6
I01
sg7
I186
sg8
S'6499.56'
p855
sa(dp856
g5
I185
sg6
I01
sg7
I186
sg8
S'6499.44'
p857
sa(dp858
g5
I185
sg6
I01
sg7
I186
sg8
S'6499.56'
p859
sa(dp860
g5
I185
sg6
I01
sg7
I186
sg8
S'6499.44'
p861
sa(dp862
g5
I185
sg6
I01
sg7
I186
sg8
S'6499.56'
p863
sa(dp864
g5
I186
sg6
I01
sg7
I186
sg8
S'6499.44'
p865
sa(dp866
g5
I186
sg6
I01
sg7
I187
sg8
S'6499.56'
p867
sa(dp868
g5
I186
sg6
I01
sg7
I187
sg8
S'6499.44'
p869
sa(dp870
g5
I186
sg6
I01
sg7
I187
sg8
S'6499.56'
p871
sa(dp872
g5
I186
sg6
I01
sg7
I187
sg8
S'6499.44'
p873
sa(dp874
g5
I186
sg6
I01
sg7
I187
sg8
S'6499.56'
p875
sa(dp876
g5
I187
sg6
I01
sg7
I187
sg8
S'6499.44'
p877
sa(dp878
g5
I187
sg6
I01
sg7
I188
sg8
S'6499.56'
p879
sa(dp880
g5
I187
sg6
I01
sg7
I188
sg8
S'6499.44'
p881
sa(dp882
g5
I187
sg6
I01
sg7
I188
sg8
S'6499.56'
p883
sa(dp884
g5
I188
sg6
I01
sg7
I188
sg8
S'6499.44'
p885
sa(dp886
g5
I188
sg6
I01
sg7
I189
sg8
S'6499.32'
p887
sa(dp888
g5
I188
sg6
I01
sg7
I189
sg8
S'6499.44'
p889
sa(dp890
g5
I188
sg6
I01
sg7
I189
sg8
S'6499.56'
p891
sa(dp892
g5
L189L
sg6
I01
sg7
I189
sg8
S'6499.44'
p893
sasS'Run'
p894
L325028L
sS'Links'
p895
S''
p896
sS'#Events'
p897
(lp898
(dp899
g5
L189L
sg6
I01
sg7
I1
sg8
I525487
sasS'olc:beam2intensity'
p900
(lp901
(dp902
g5
I1
sg6
I01
sg7
I1
sg8
S'293.957'
p903
sa(dp904
g5
I2
sg6
I01
sg7
I2
sg8
S'293.81'
p905
sa(dp906
g5
I3
sg6
I01
sg7
I3
sg8
S'293.663'
p907
sa(dp908
g5
I4
sg6
I01
sg7
I4
sg8
S'293.507'
p909
sa(dp910
g5
I5
sg6
I01
sg7
I5
sg8
S'293.367'
p911
sa(dp912
g5
I6
sg6
I01
sg7
I6
sg8
S'293.227'
p913
sa(dp914
g5
I7
sg6
I01
sg7
I7
sg8
S'293.08'
p915
sa(dp916
g5
I8
sg6
I01
sg7
I8
sg8
S'292.999'
p917
sa(dp918
g5
I9
sg6
I01
sg7
I9
sg8
S'292.961'
p919
sa(dp920
g5
I10
sg6
I01
sg7
I10
sg8
S'292.916'
p921
sa(dp922
g5
I11
sg6
I01
sg7
I11
sg8
S'292.891'
p923
sa(dp924
g5
I12
sg6
I01
sg7
I12
sg8
S'292.866'
p925
sa(dp926
g5
I13
sg6
I01
sg7
I13
sg8
S'292.839'
p927
sa(dp928
g5
I14
sg6
I01
sg7
I14
sg8
S'292.813'
p929
sa(dp930
g5
I15
sg6
I01
sg7
I15
sg8
S'292.794'
p931
sa(dp932
g5
I16
sg6
I01
sg7
I16
sg8
S'292.764'
p933
sa(dp934
g5
I17
sg6
I01
sg7
I17
sg8
S'292.747'
p935
sa(dp936
g5
I18
sg6
I01
sg7
I18
sg8
S'292.725'
p937
sa(dp938
g5
I19
sg6
I01
sg7
I19
sg8
S'292.697'
p939
sa(dp940
g5
I20
sg6
I01
sg7
I20
sg8
S'292.671'
p941
sa(dp942
g5
I21
sg6
I01
sg7
I21
sg8
S'292.654'
p943
sa(dp944
g5
I22
sg6
I01
sg7
I22
sg8
S'292.611'
p945
sa(dp946
g5
I23
sg6
I01
sg7
I23
sg8
S'292.585'
p947
sa(dp948
g5
I24
sg6
I01
sg7
I24
sg8
S'292.564'
p949
sa(dp950
g5
I25
sg6
I01
sg7
I25
sg8
S'292.537'
p951
sa(dp952
g5
I26
sg6
I01
sg7
I26
sg8
S'292.512'
p953
sa(dp954
g5
I27
sg6
I01
sg7
I27
sg8
S'292.491'
p955
sa(dp956
g5
I28
sg6
I01
sg7
I28
sg8
S'292.466'
p957
sa(dp958
g5
I29
sg6
I01
sg7
I29
sg8
S'292.441'
p959
sa(dp960
g5
I30
sg6
I01
sg7
I30
sg8
S'292.421'
p961
sa(dp962
g5
I31
sg6
I01
sg7
I31
sg8
S'292.392'
p963
sa(dp964
g5
I32
sg6
I01
sg7
I32
sg8
S'292.37'
p965
sa(dp966
g5
I33
sg6
I01
sg7
I33
sg8
S'292.343'
p967
sa(dp968
g5
I34
sg6
I01
sg7
I34
sg8
S'292.313'
p969
sa(dp970
g5
I35
sg6
I01
sg7
I35
sg8
S'292.302'
p971
sa(dp972
g5
I36
sg6
I01
sg7
I36
sg8
S'292.281'
p973
sa(dp974
g5
I37
sg6
I01
sg7
I37
sg8
S'292.259'
p975
sa(dp976
g5
I38
sg6
I01
sg7
I38
sg8
S'292.233'
p977
sa(dp978
g5
I39
sg6
I01
sg7
I39
sg8
S'292.208'
p979
sa(dp980
g5
I40
sg6
I01
sg7
I40
sg8
S'292.178'
p981
sa(dp982
g5
I41
sg6
I01
sg7
I41
sg8
S'292.15'
p983
sa(dp984
g5
I42
sg6
I01
sg7
I42
sg8
S'292.128'
p985
sa(dp986
g5
I43
sg6
I01
sg7
I43
sg8
S'292.102'
p987
sa(dp988
g5
I44
sg6
I01
sg7
I44
sg8
S'292.076'
p989
sa(dp990
g5
I45
sg6
I01
sg7
I45
sg8
S'292.056'
p991
sa(dp992
g5
I46
sg6
I01
sg7
I46
sg8
S'292.037'
p993
sa(dp994
g5
I47
sg6
I01
sg7
I47
sg8
S'292.01'
p995
sa(dp996
g5
I48
sg6
I01
sg7
I48
sg8
S'291.983'
p997
sa(dp998
g5
I49
sg6
I01
sg7
I49
sg8
S'291.955'
p999
sa(dp1000
g5
I50
sg6
I01
sg7
I50
sg8
S'291.929'
p1001
sa(dp1002
g5
I51
sg6
I01
sg7
I51
sg8
S'291.899'
p1003
sa(dp1004
g5
I52
sg6
I01
sg7
I52
sg8
S'291.86'
p1005
sa(dp1006
g5
I53
sg6
I01
sg7
I53
sg8
S'291.81'
p1007
sa(dp1008
g5
I54
sg6
I01
sg7
I54
sg8
S'291.723'
p1009
sa(dp1010
g5
I55
sg6
I01
sg7
I55
sg8
S'291.58'
p1011
sa(dp1012
g5
I56
sg6
I01
sg7
I56
sg8
S'291.437'
p1013
sa(dp1014
g5
I57
sg6
I01
sg7
I57
sg8
S'291.293'
p1015
sa(dp1016
g5
I58
sg6
I01
sg7
I58
sg8
S'291.157'
p1017
sa(dp1018
g5
I59
sg6
I01
sg7
I59
sg8
S'291.074'
p1019
sa(dp1020
g5
I60
sg6
I01
sg7
I60
sg8
S'291.037'
p1021
sa(dp1022
g5
I61
sg6
I01
sg7
I61
sg8
S'291.007'
p1023
sa(dp1024
g5
I62
sg6
I01
sg7
I62
sg8
S'290.995'
p1025
sa(dp1026
g5
I63
sg6
I01
sg7
I63
sg8
S'290.975'
p1027
sa(dp1028
g5
I64
sg6
I01
sg7
I64
sg8
S'290.944'
p1029
sa(dp1030
g5
I65
sg6
I01
sg7
I65
sg8
S'290.919'
p1031
sa(dp1032
g5
I66
sg6
I01
sg7
I66
sg8
S'290.897'
p1033
sa(dp1034
g5
I67
sg6
I01
sg7
I67
sg8
S'290.872'
p1035
sa(dp1036
g5
I68
sg6
I01
sg7
I68
sg8
S'290.849'
p1037
sa(dp1038
g5
I69
sg6
I01
sg7
I69
sg8
S'290.827'
p1039
sa(dp1040
g5
I70
sg6
I01
sg7
I70
sg8
S'290.803'
p1041
sa(dp1042
g5
I71
sg6
I01
sg7
I71
sg8
S'290.781'
p1043
sa(dp1044
g5
I72
sg6
I01
sg7
I72
sg8
S'290.758'
p1045
sa(dp1046
g5
I73
sg6
I01
sg7
I73
sg8
S'290.731'
p1047
sa(dp1048
g5
I74
sg6
I01
sg7
I74
sg8
S'290.704'
p1049
sa(dp1050
g5
I75
sg6
I01
sg7
I75
sg8
S'290.683'
p1051
sa(dp1052
g5
I76
sg6
I01
sg7
I76
sg8
S'290.654'
p1053
sa(dp1054
g5
I77
sg6
I01
sg7
I77
sg8
S'290.63'
p1055
sa(dp1056
g5
I78
sg6
I01
sg7
I78
sg8
S'290.603'
p1057
sa(dp1058
g5
I79
sg6
I01
sg7
I79
sg8
S'290.577'
p1059
sa(dp1060
g5
I80
sg6
I01
sg7
I80
sg8
S'290.547'
p1061
sa(dp1062
g5
I81
sg6
I01
sg7
I81
sg8
S'290.528'
p1063
sa(dp1064
g5
I82
sg6
I01
sg7
I82
sg8
S'290.502'
p1065
sa(dp1066
g5
I83
sg6
I01
sg7
I83
sg8
S'290.473'
p1067
sa(dp1068
g5
I84
sg6
I01
sg7
I84
sg8
S'290.457'
p1069
sa(dp1070
g5
I85
sg6
I01
sg7
I85
sg8
S'290.435'
p1071
sa(dp1072
g5
I86
sg6
I01
sg7
I86
sg8
S'290.416'
p1073
sa(dp1074
g5
I87
sg6
I01
sg7
I87
sg8
S'290.391'
p1075
sa(dp1076
g5
I88
sg6
I01
sg7
I88
sg8
S'290.367'
p1077
sa(dp1078
g5
I89
sg6
I01
sg7
I89
sg8
S'290.339'
p1079
sa(dp1080
g5
I90
sg6
I01
sg7
I90
sg8
S'290.317'
p1081
sa(dp1082
g5
I91
sg6
I01
sg7
I91
sg8
S'290.279'
p1083
sa(dp1084
g5
I92
sg6
I01
sg7
I92
sg8
S'290.253'
p1085
sa(dp1086
g5
I93
sg6
I01
sg7
I93
sg8
S'290.175'
p1087
sa(dp1088
g5
I94
sg6
I01
sg7
I94
sg8
S'290.064'
p1089
sa(dp1090
g5
I95
sg6
I01
sg7
I95
sg8
S'289.977'
p1091
sa(dp1092
g5
I96
sg6
I01
sg7
I96
sg8
S'289.943'
p1093
sa(dp1094
g5
I97
sg6
I01
sg7
I97
sg8
S'289.854'
p1095
sa(dp1096
g5
I98
sg6
I01
sg7
I98
sg8
S'289.764'
p1097
sa(dp1098
g5
I99
sg6
I01
sg7
I99
sg8
S'289.723'
p1099
sa(dp1100
g5
I100
sg6
I01
sg7
I100
sg8
S'289.695'
p1101
sa(dp1102
g5
I101
sg6
I01
sg7
I101
sg8
S'289.677'
p1103
sa(dp1104
g5
I102
sg6
I01
sg7
I102
sg8
S'289.647'
p1105
sa(dp1106
g5
I103
sg6
I01
sg7
I103
sg8
S'289.619'
p1107
sa(dp1108
g5
I104
sg6
I01
sg7
I104
sg8
S'289.597'
p1109
sa(dp1110
g5
I105
sg6
I01
sg7
I105
sg8
S'289.568'
p1111
sa(dp1112
g5
I106
sg6
I01
sg7
I106
sg8
S'289.542'
p1113
sa(dp1114
g5
I107
sg6
I01
sg7
I107
sg8
S'289.511'
p1115
sa(dp1116
g5
I108
sg6
I01
sg7
I108
sg8
S'289.49'
p1117
sa(dp1118
g5
I109
sg6
I01
sg7
I109
sg8
S'289.468'
p1119
sa(dp1120
g5
I110
sg6
I01
sg7
I110
sg8
S'289.442'
p1121
sa(dp1122
g5
I111
sg6
I01
sg7
I111
sg8
S'289.418'
p1123
sa(dp1124
g5
I112
sg6
I01
sg7
I112
sg8
S'289.397'
p1125
sa(dp1126
g5
I113
sg6
I01
sg7
I113
sg8
S'289.378'
p1127
sa(dp1128
g5
I114
sg6
I01
sg7
I114
sg8
S'289.344'
p1129
sa(dp1130
g5
I115
sg6
I01
sg7
I115
sg8
S'289.319'
p1131
sa(dp1132
g5
I116
sg6
I01
sg7
I116
sg8
S'289.295'
p1133
sa(dp1134
g5
I117
sg6
I01
sg7
I117
sg8
S'289.262'
p1135
sa(dp1136
g5
I118
sg6
I01
sg7
I118
sg8
S'289.225'
p1137
sa(dp1138
g5
I119
sg6
I01
sg7
I119
sg8
S'289.199'
p1139
sa(dp1140
g5
I120
sg6
I01
sg7
I120
sg8
S'289.178'
p1141
sa(dp1142
g5
I121
sg6
I01
sg7
I121
sg8
S'289.149'
p1143
sa(dp1144
g5
I122
sg6
I01
sg7
I122
sg8
S'289.13'
p1145
sa(dp1146
g5
I123
sg6
I01
sg7
I123
sg8
S'289.101'
p1147
sa(dp1148
g5
I124
sg6
I01
sg7
I124
sg8
S'289.026'
p1149
sa(dp1150
g5
I125
sg6
I01
sg7
I125
sg8
S'288.897'
p1151
sa(dp1152
g5
I126
sg6
I01
sg7
I126
sg8
S'288.83'
p1153
sa(dp1154
g5
I127
sg6
I01
sg7
I127
sg8
S'288.808'
p1155
sa(dp1156
g5
I128
sg6
I01
sg7
I128
sg8
S'288.785'
p1157
sa(dp1158
g5
I129
sg6
I01
sg7
I129
sg8
S'288.765'
p1159
sa(dp1160
g5
I130
sg6
I01
sg7
I130
sg8
S'288.733'
p1161
sa(dp1162
g5
I131
sg6
I01
sg7
I131
sg8
S'288.714'
p1163
sa(dp1164
g5
I132
sg6
I01
sg7
I132
sg8
S'288.682'
p1165
sa(dp1166
g5
I133
sg6
I01
sg7
I133
sg8
S'288.655'
p1167
sa(dp1168
g5
I134
sg6
I01
sg7
I134
sg8
S'288.63'
p1169
sa(dp1170
g5
I135
sg6
I01
sg7
I135
sg8
S'288.611'
p1171
sa(dp1172
g5
I136
sg6
I01
sg7
I136
sg8
S'288.594'
p1173
sa(dp1174
g5
I137
sg6
I01
sg7
I137
sg8
S'288.563'
p1175
sa(dp1176
g5
I138
sg6
I01
sg7
I138
sg8
S'288.537'
p1177
sa(dp1178
g5
I139
sg6
I01
sg7
I139
sg8
S'288.513'
p1179
sa(dp1180
g5
I140
sg6
I01
sg7
I140
sg8
S'288.485'
p1181
sa(dp1182
g5
I141
sg6
I01
sg7
I141
sg8
S'288.462'
p1183
sa(dp1184
g5
I142
sg6
I01
sg7
I142
sg8
S'288.438'
p1185
sa(dp1186
g5
I143
sg6
I01
sg7
I143
sg8
S'288.418'
p1187
sa(dp1188
g5
I144
sg6
I01
sg7
I144
sg8
S'288.4'
p1189
sa(dp1190
g5
I145
sg6
I01
sg7
I145
sg8
S'288.385'
p1191
sa(dp1192
g5
I146
sg6
I01
sg7
I146
sg8
S'288.35'
p1193
sa(dp1194
g5
I147
sg6
I01
sg7
I147
sg8
S'288.321'
p1195
sa(dp1196
g5
I148
sg6
I01
sg7
I148
sg8
S'288.302'
p1197
sa(dp1198
g5
I149
sg6
I01
sg7
I149
sg8
S'288.271'
p1199
sa(dp1200
g5
I150
sg6
I01
sg7
I150
sg8
S'288.257'
p1201
sa(dp1202
g5
I151
sg6
I01
sg7
I151
sg8
S'288.218'
p1203
sa(dp1204
g5
I152
sg6
I01
sg7
I152
sg8
S'288.202'
p1205
sa(dp1206
g5
I153
sg6
I01
sg7
I153
sg8
S'288.171'
p1207
sa(dp1208
g5
I154
sg6
I01
sg7
I154
sg8
S'288.143'
p1209
sa(dp1210
g5
I155
sg6
I01
sg7
I155
sg8
S'288.124'
p1211
sa(dp1212
g5
I156
sg6
I01
sg7
I156
sg8
S'288.103'
p1213
sa(dp1214
g5
I157
sg6
I01
sg7
I157
sg8
S'288.073'
p1215
sa(dp1216
g5
I158
sg6
I01
sg7
I158
sg8
S'288.048'
p1217
sa(dp1218
g5
I159
sg6
I01
sg7
I159
sg8
S'288.029'
p1219
sa(dp1220
g5
I160
sg6
I01
sg7
I160
sg8
S'288.011'
p1221
sa(dp1222
g5
I161
sg6
I01
sg7
I161
sg8
S'287.988'
p1223
sa(dp1224
g5
I162
sg6
I01
sg7
I162
sg8
S'287.957'
p1225
sa(dp1226
g5
I163
sg6
I01
sg7
I163
sg8
S'287.934'
p1227
sa(dp1228
g5
I164
sg6
I01
sg7
I164
sg8
S'287.912'
p1229
sa(dp1230
g5
I165
sg6
I01
sg7
I165
sg8
S'287.886'
p1231
sa(dp1232
g5
I166
sg6
I01
sg7
I166
sg8
S'287.86'
p1233
sa(dp1234
g5
I167
sg6
I01
sg7
I167
sg8
S'287.821'
p1235
sa(dp1236
g5
I168
sg6
I01
sg7
I168
sg8
S'287.782'
p1237
sa(dp1238
g5
I169
sg6
I01
sg7
I169
sg8
S'287.683'
p1239
sa(dp1240
g5
I170
sg6
I01
sg7
I170
sg8
S'287.542'
p1241
sa(dp1242
g5
I171
sg6
I01
sg7
I171
sg8
S'287.41'
p1243
sa(dp1244
g5
I172
sg6
I01
sg7
I172
sg8
S'287.276'
p1245
sa(dp1246
g5
I173
sg6
I01
sg7
I173
sg8
S'287.195'
p1247
sa(dp1248
g5
I174
sg6
I01
sg7
I174
sg8
S'287.115'
p1249
sa(dp1250
g5
I175
sg6
I01
sg7
I175
sg8
S'287.025'
p1251
sa(dp1252
g5
I176
sg6
I01
sg7
I176
sg8
S'286.952'
p1253
sa(dp1254
g5
I177
sg6
I01
sg7
I177
sg8
S'286.852'
p1255
sa(dp1256
g5
I178
sg6
I01
sg7
I178
sg8
S'286.806'
p1257
sa(dp1258
g5
I179
sg6
I01
sg7
I179
sg8
S'286.781'
p1259
sa(dp1260
g5
I180
sg6
I01
sg7
I180
sg8
S'286.763'
p1261
sa(dp1262
g5
I181
sg6
I01
sg7
I181
sg8
S'286.74'
p1263
sa(dp1264
g5
I182
sg6
I01
sg7
I182
sg8
S'286.667'
p1265
sa(dp1266
g5
I183
sg6
I01
sg7
I183
sg8
S'286.544'
p1267
sa(dp1268
g5
I184
sg6
I01
sg7
I184
sg8
S'286.412'
p1269
sa(dp1270
g5
I185
sg6
I01
sg7
I185
sg8
S'286.276'
p1271
sa(dp1272
g5
I186
sg6
I01
sg7
I186
sg8
S'286.155'
p1273
sa(dp1274
g5
I187
sg6
I01
sg7
I187
sg8
S'286.035'
p1275
sa(dp1276
g5
I188
sg6
I01
sg7
I188
sg8
S'285.918'
p1277
sa(dp1278
g5
L189L
sg6
I01
sg7
I189
sg8
S'285.252'
p1279
sasS'olc:collbunches'
p1280
(lp1281
(dp1282
g5
L189L
sg6
I01
sg7
I1
sg8
S'303'
p1283
sasS'#LB'
p1284
(L189L
(lp1285
F0.0
aF60.103554795
aF120.20373179
aF180.31074204
aF240.41774649
aF300.53258396
aF360.650497705
aF420.76029928
aF431.024727105
aF452.80311972500004
aF462.85854317
aF473.12837620000005
aF486.18671485500005
aF496.41302556000005
aF506.678114035
aF516.942707085
aF527.20836346
aF537.4731123800001
aF547.738915645
aF559.59022925
aF569.7723341100001
aF580.043571595
aF590.30830155
aF601.05525342
aF611.0950001150001
aF621.361344385
aF631.62720299
aF641.895941505
aF652.163599555
aF662.4276292200001
aF672.69577441
aF682.96136646
aF693.22923043
aF703.249448035
aF713.51845343
aF723.787152675
aF733.8067815200001
aF744.0722113950001
aF754.337660085
aF764.3530161650001
aF774.618498615
aF786.523212295
aF796.66108636
aF806.9259349350001
aF817.1898710400001
aF827.45673624
aF837.474134735
aF847.49140374
aF857.757101915
aF868.0250447850001
aF878.2916495950001
aF891.5583370600001
aF914.034539565
aF929.3563833200001
aF989.4804916850001
aF1049.586531525
aF1109.6856701450001
aF1169.7871327100002
aF1229.90230593
aF1243.80629556
aF1253.944567765
aF1264.20788427
aF1274.4723257800001
aF1284.7360611850002
aF1295.002584285
aF1305.2685434500002
aF1316.773811895
aF1326.7992847550001
aF1336.8175744500002
aF1347.083165015
aF1357.104916405
aF1367.3699423100002
aF1377.637222695
aF1389.2861812800002
aF1399.42094504
aF1409.68501152
aF1419.94971579
aF1430.221343265
aF1440.23952325
aF1450.31382381
aF1463.630490755
aF1473.800190995
aF1484.0650277250002
aF1494.32994899
aF1504.3505697350001
aF1514.373700375
aF1524.6405656050001
aF1534.91240766
aF1545.1748422350001
aF1555.44143972
aF1567.7693296300001
aF1577.9738200850002
aF1587.9927972500002
aF1648.104712065
aF1690.607022055
aF1713.9151446800001
aF1728.129640155
aF1788.341897215
aF1809.174461305
aF1819.39548689
aF1829.6593468800002
aF1839.9286202550002
aF1849.943504625
aF1864.634789315
aF1874.96233929
aF1889.9693196950002
aF1900.032269775
aF1910.0519830150001
aF1920.319046235
aF1930.584907525
aF1940.85373129
aF1951.1201843350002
aF1963.8891050400002
aF1973.90992088
aF1983.9282495050002
aF1994.19795343
aF2004.4649738100002
aF2024.2992843600002
aF2034.515352285
aF2044.7809154150002
aF2055.048052015
aF2065.312087665
aF2075.332257905
aF2085.59805173
aF2145.716706525
aF2200.4766364750003
aF2210.56718906
aF2220.5831812750002
aF2230.8507660650002
aF2241.119777015
aF2251.38899411
aF2261.655982925
aF2274.294720855
aF2284.43649022
aF2294.70123452
aF2304.9714071500002
aF2315.2370007
aF2325.50533476
aF2335.77346403
aF2348.3600938900004
aF2358.554277275
aF2368.8222099100003
aF2379.09169565
aF2389.1206862050003
aF2399.3756327
aF2409.64063322
aF2421.09701695
aF2431.17108972
aF2441.4385009850002
aF2451.703970155
aF2461.96871498
aF2472.23360891
aF2482.3660774200002
aF2495.851223255
aF2506.03940397
aF2516.0580534700002
aF2526.32419599
aF2537.938155365
aF2548.111662575
aF2558.13004136
aF2568.3950954
aF2578.66115683
aF2588.925257105
aF2599.200255065
aF2612.518443495
aF2622.724665915
aF2637.3252892150003
aF2647.5131277550004
aF2675.9915990950003
aF2736.430259655
aF2796.5235224900002
aF2856.63353486
aF2916.7268055450004
aF2927.687767575
aF2988.106829695
aF2998.1226251800003
aF3058.482899895
aF3087.25468094
aF3097.55252208
aF3107.81832535
aF3118.0833221400003
aF3128.3542297050003
aF3182.2119683200003
aF3242.57147199
aF3302.67739931
aF3362.7867243200003
aF3422.8994255850002
aF3483.0000714250004
aF3543.120572235
aF3611.080195685
atp1286
sS'lhc:stablebeams'
p1287
(lp1288
(dp1289
g5
L189L
sg6
I01
sg7
I1
sg8
S'TRUE'
p1290
sasS'olc:beam1bunches'
p1291
(lp1292
(dp1293
g5
L189L
sg6
I01
sg7
I1
sg8
S'315'
p1294
sasS'olc:beam2bunches'
p1295
(lp1296
(dp1297
g5
L189L
sg6
I01
sg7
I1
sg8
S'315'
p1298
sasS'olc:bcidmask'
p1299
(lp1300
(dp1301
g5
L189L
sg6
I01
sg7
I1
sg8
S'\x00\x00\x00\x00\x00\x00\x00\x03\x00\x00\x00\x00\x00\x00\x00\x00\x00\x00\x00\x00\x00\x00\x00\x00\x00\x00\x00\x00\x00\x00\x00\x00\x00\x00\x00\x00\x00\x00\x00\x00\x00\x00\x00\x00\x00\x00\x00\x03\x00\x00\x00\x00\x00\x00\x00\x00\x00\x00\x00\x00\x00\x00\x00\x00\x00\x00\x00\x00\x00\x00\x00\x00\x00\x00\x00\x00\x00\x00\x00\x00\x00\x00\x00\x00\x00\x00\x00\x03\x00\x00\x00\x00\x00\x00\x00\x00\x00\x00\x00\x00\x00\x00\x00\x00\x00\x00\x00\x00\x00\x00\x00\x00\x00\x00\x00\x00\x00\x00\x00\x00\x00\x00\x00\x00\x00\x00\x00\x00\x00\x00\x00\x00\x00\x00\x00\x00\x00\x00\x00\x00\x00\x00\x00\x00\x00\x00\x03\x03\x03\x03\x03\x03\x03\x03\x03\x03\x03\x03\x00\x00\x00\x00\x00\x00\x00\x00\x00\x00\x00\x00\x00\x00\x00\x00\x00\x00\x00\x00\x00\x00\x00\x00\x00\x00\x00\x00\x00\x00\x00\x00\x00\x00\x00\x00\x00\x00\x00\x00\x00\x00\x00\x00\x00\x00\x00\x00\x00\x00\x00\x00\x00\x00\x00\x00\x00\x00\x00\x00\x00\x00\x00\x00\x00\x00\x00\x00\x00\x00\x00\x00\x00\x00\x00\x00\x00\x00\x00\x00\x00\x00\x00\x00\x00\x00\x00\x00\x00\x00\x00\x00\x00\x00\x00\x00\x00\x00\x00\x00\x00\x00\x00\x00\x00\x00\x00\x00\x00\x00\x00\x00\x00\x00\x00\x00\x00\x00\x00\x00\x00\x00\x00\x00\x00\x00\x00\x00\x00\x00\x00\x00\x00\x00\x00\x00\x00\x00\x00\x00\x00\x00\x00\x00\x00\x00\x00\x00\x00\x00\x00\x00\x00\x00\x00\x00\x00\x00\x00\x00\x00\x00\x00\x00\x00\x00\x00\x00\x00\x00\x00\x00\x00\x00\x00\x00\x00\x00\x00\x00\x00\x00\x00\x00\x00\x00\x00\x00\x00\x00\x00\x01\x01\x01\x01\x01\x01\x01\x01\x01\x01\x01\x01\x00\x00\x00\x00\x00\x00\x00\x00\x00\x00\x00\x00\x02\x02\x02\x02\x02\x02\x02\x02\x02\x02\x02\x02\x00\x00\x00\x00\x00\x00\x00\x00\x00\x00\x00\x00\x00\x00\x00\x00\x00\x00\x00\x00\x00\x00\x00\x00\x00\x00\x00\x00\x00\x00\x00\x00\x00\x00\x00\x00\x00\x00\x00\x00\x00\x00\x00\x00\x00\x00\x00\x00\x00\x00\x00\x00\x00\x00\x00\x00\x00\x00\x00\x00\x00\x00\x00\x00\x00\x00\x00\x00\x00\x00\x00\x00\x00\x00\x00\x00\x00\x00\x00\x00\x00\x00\x00\x00\x00\x00\x00\x00\x00\x00\x00\x00\x00\x00\x00\x00\x00\x00\x00\x00\x00\x00\x00\x00\x00\x00\x00\x00\x00\x00\x00\x00\x00\x00\x00\x00\x00\x00\x00\x00\x00\x00\x00\x00\x00\x00\x00\x00\x00\x00\x00\x00\x00\x00\x00\x00\x00\x00\x00\x00\x00\x00\x00\x00\x00\x00\x00\x00\x00\x00\x00\x00\x00\x00\x00\x00\x00\x00\x00\x00\x00\x00\x00\x00\x00\x00\x00\x00\x00\x00\x00\x00\x00\x00\x00\x00\x00\x00\x00\x00\x00\x00\x00\x00\x00\x00\x00\x00\x00\x00\x00\x00\x00\x00\x00\x00\x00\x00\x00\x00\x00\x00\x00\x00\x00\x00\x00\x00\x00\x00\x00\x00\x00\x00\x00\x00\x00\x00\x00\x00\x00\x00\x00\x00\x00\x00\x00\x00\x00\x00\x00\x00\x00\x00\x00\x00\x00\x00\x00\x00\x00\x00\x00\x00\x00\x00\x00\x00\x00\x00\x00\x00\x00\x00\x00\x00\x00\x00\x00\x00\x00\x00\x00\x00\x00\x00\x00\x00\x00\x00\x00\x00\x00\x00\x00\x00\x00\x00\x00\x00\x00\x00\x00\x00\x00\x00\x00\x00\x00\x00\x00\x00\x00\x00\x00\x00\x00\x00\x00\x00\x00\x00\x00\x00\x00\x00\x00\x00\x00\x00\x00\x00\x00\x00\x00\x00\x00\x00\x00\x00\x00\x00\x00\x00\x00\x00\x00\x00\x00\x00\x00\x00\x00\x00\x00\x00\x00\x00\x00\x00\x00\x00\x00\x00\x00\x00\x00\x00\x00\x00\x00\x00\x00\x00\x00\x00\x00\x00\x00\x00\x00\x00\x00\x00\x00\x00\x00\x00\x00\x00\x00\x00\x00\x00\x00\x00\x00\x00\x00\x00\x00\x00\x00\x00\x00\x00\x00\x00\x00\x00\x00\x00\x00\x00\x00\x00\x00\x00\x00\x00\x00\x00\x00\x00\x00\x00\x00\x00\x00\x00\x00\x00\x00\x00\x00\x00\x00\x00\x00\x00\x00\x00\x00\x00\x00\x00\x00\x00\x00\x00\x00\x00\x00\x00\x00\x00\x00\x00\x00\x00\x00\x00\x00\x00\x00\x00\x00\x00\x00\x00\x00\x00\x00\x00\x00\x00\x00\x00\x00\x00\x00\x00\x00\x00\x00\x00\x00\x00\x00\x00\x00\x00\x00\x00\x00\x00\x00\x00\x00\x00\x00\x00\x00\x00\x00\x00\x00\x00\x00\x00\x00\x00\x00\x00\x00\x00\x00\x00\x00\x00\x00\x00\x00\x00\x00\x00\x00\x00\x00\x00\x00\x00\x00\x00\x00\x00\x00\x00\x00\x00\x00\x00\x00\x00\x00\x00\x00\x00\x00\x00\x00\x00\x00\x00\x00\x00\x00\x00\x00\x00\x00\x00\x00\x00\x00\x00\x00\x00\x00\x00\x00\x00\x00\x00\x00\x00\x00\x00\x00\x00\x00\x00\x00\x00\x00\x00\x00\x00\x00\x00\x00\x00\x00\x00\x00\x00\x00\x00\x00\x00\x00\x00\x00\x00\x00\x00\x00\x00\x00\x00\x00\x00\x00\x00\x00\x00\x00\x00\x00\x00\x00\x00\x00\x00\x00\x00\x00\x00\x00\x00\x00\x00\x00\x00\x00\x00\x00\x00\x00\x03\x03\x03\x03\x03\x03\x03\x03\x03\x03\x03\x03\x03\x03\x03\x03\x03\x03\x03\x03\x03\x03\x03\x03\x03\x03\x03\x03\x03\x03\x03\x03\x03\x03\x03\x03\x03\x03\x03\x03\x03\x03\x03\x03\x03\x03\x03\x03\x00\x00\x00\x00\x00\x00\x00\x00\x00\x00\x00\x00\x00\x00\x00\x00\x00\x00\x00\x00\x00\x00\x00\x00\x00\x00\x00\x00\x00\x00\x00\x00\x00\x00\x00\x00\x00\x00\x00\x00\x00\x00\x00\x00\x00\x00\x00\x00\x00\x00\x00\x00\x00\x00\x00\x00\x00\x00\x00\x00\x00\x00\x00\x00\x00\x00\x00\x00\x00\x00\x00\x00\x00\x00\x00\x00\x00\x00\x00\x00\x00\x00\x00\x00\x00\x00\x00\x00\x00\x00\x00\x00\x00\x00\x00\x00\x00\x00\x00\x00\x00\x00\x00\x00\x00\x00\x00\x00\x00\x00\x00\x00\x00\x00\x00\x00\x00\x00\x00\x00\x00\x00\x00\x00\x00\x00\x00\x00\x00\x00\x00\x00\x00\x00\x00\x00\x00\x00\x00\x00\x00\x00\x00\x00\x00\x00\x00\x00\x00\x00\x00\x00\x00\x00\x00\x00\x00\x00\x00\x00\x00\x00\x00\x00\x00\x00\x00\x00\x00\x00\x00\x00\x00\x00\x00\x00\x00\x00\x00\x03\x03\x03\x03\x03\x03\x03\x03\x03\x03\x03\x03\x03\x03\x03\x03\x03\x03\x03\x03\x03\x03\x03\x03\x03\x03\x03\x03\x03\x03\x03\x03\x03\x03\x03\x03\x03\x03\x03\x03\x03\x03\x03\x03\x03\x03\x03\x03\x00\x00\x00\x00\x00\x00\x00\x00\x00\x00\x00\x00\x00\x00\x00\x00\x00\x00\x00\x00\x00\x00\x00\x00\x00\x00\x00\x00\x00\x00\x00\x00\x00\x00\x00\x00\x00\x00\x00\x00\x00\x00\x00\x00\x00\x00\x00\x00\x00\x00\x00\x00\x00\x00\x00\x00\x00\x00\x00\x00\x00\x00\x00\x00\x00\x00\x00\x00\x00\x00\x00\x00\x00\x00\x00\x00\x00\x00\x00\x00\x00\x00\x00\x00\x00\x00\x00\x00\x00\x00\x00\x00\x00\x00\x00\x00\x00\x00\x00\x00\x00\x00\x00\x00\x00\x00\x00\x00\x00\x00\x00\x00\x00\x00\x00\x00\x00\x00\x00\x00\x00\x00\x00\x00\x00\x00\x00\x00\x00\x00\x00\x00\x00\x00\x00\x00\x00\x00\x00\x00\x00\x00\x00\x00\x00\x00\x00\x00\x00\x00\x00\x00\x00\x00\x00\x00\x00\x00\x00\x00\x00\x00\x00\x00\x00\x00\x00\x00\x00\x00\x00\x00\x00\x00\x00\x00\x00\x00\x00\x00\x00\x00\x00\x00\x00\x00\x00\x00\x00\x00\x00\x00\x00\x00\x00\x00\x00\x00\x00\x00\x00\x00\x00\x00\x00\x00\x00\x00\x00\x00\x00\x00\x00\x00\x00\x00\x00\x00\x00\x00\x00\x00\x00\x00\x00\x00\x00\x00\x00\x00\x00\x00\x00\x00\x00\x00\x00\x00\x00\x00\x00\x00\x00\x00\x00\x00\x00\x00\x00\x00\x00\x00\x00\x00\x00\x00\x00\x00\x00\x00\x00\x00\x00\x00\x00\x00\x00\x00\x00\x00\x00\x00\x00\x00\x00\x00\x00\x00\x00\x00\x00\x00\x00\x00\x00\x00\x00\x00\x00\x00\x00\x00\x00\x00\x00\x00\x00\x00\x00\x00\x00\x00\x00\x00\x00\x00\x00\x00\x00\x00\x00\x00\x00\x00\x00\x00\x00\x00\x00\x00\x00\x00\x00\x00\x00\x00\x00\x00\x00\x00\x00\x00\x00\x00\x00\x00\x00\x00\x00\x00\x00\x00\x00\x00\x00\x00\x00\x00\x00\x00\x00\x00\x00\x00\x00\x00\x00\x00\x00\x00\x00\x00\x00\x00\x00\x00\x00\x00\x00\x00\x00\x00\x00\x00\x00\x00\x00\x00\x00\x00\x00\x00\x00\x00\x00\x00\x00\x00\x00\x00\x00\x00\x00\x00\x00\x00\x00\x00\x00\x00\x00\x00\x00\x00\x00\x00\x00\x00\x00\x00\x00\x00\x00\x00\x00\x00\x00\x00\x00\x00\x00\x00\x00\x00\x00\x00\x00\x00\x00\x00\x00\x00\x00\x00\x00\x00\x00\x00\x00\x00\x00\x00\x00\x00\x00\x00\x00\x00\x00\x00\x00\x00\x00\x00\x00\x00\x00\x00\x00\x00\x00\x00\x00\x00\x00\x00\x00\x00\x00\x00\x00\x00\x00\x00\x00\x00\x00\x00\x00\x00\x00\x00\x00\x00\x00\x00\x00\x00\x00\x00\x00\x00\x00\x00\x00\x00\x00\x00\x00\x00\x00\x00\x00\x00\x00\x00\x00\x00\x00\x00\x00\x00\x00\x00\x00\x00\x00\x00\x00\x00\x00\x00\x00\x00\x00\x00\x00\x00\x00\x00\x00\x00\x00\x00\x00\x00\x00\x00\x00\x00\x00\x00\x00\x00\x00\x00\x00\x00\x00\x00\x00\x00\x00\x00\x00\x00\x00\x00\x00\x00\x00\x00\x00\x00\x00\x00\x00\x00\x00\x00\x00\x00\x00\x00\x00\x00\x00\x00\x00\x00\x00\x00\x00\x00\x00\x00\x00\x00\x00\x00\x00\x00\x00\x00\x00\x00\x00\x00\x00\x00\x00\x00\x00\x00\x00\x00\x00\x00\x00\x00\x00\x00\x00\x00\x00\x00\x00\x00\x00\x03\x03\x03\x03\x03\x03\x03\x03\x03\x03\x03\x03\x03\x03\x03\x03\x03\x03\x03\x03\x03\x03\x03\x03\x03\x03\x03\x03\x03\x03\x03\x03\x03\x03\x03\x03\x03\x03\x03\x03\x03\x03\x03\x03\x03\x03\x03\x03\x00\x00\x00\x00\x00\x00\x00\x00\x00\x00\x00\x00\x00\x00\x00\x00\x00\x00\x00\x00\x00\x00\x00\x00\x00\x00\x00\x00\x00\x00\x00\x00\x00\x00\x00\x00\x00\x00\x00\x00\x00\x00\x00\x00\x00\x00\x00\x00\x00\x00\x00\x00\x00\x00\x00\x00\x00\x00\x00\x00\x00\x00\x00\x00\x00\x00\x00\x00\x00\x00\x00\x00\x00\x00\x00\x00\x00\x00\x00\x00\x00\x00\x00\x00\x00\x00\x00\x00\x00\x00\x00\x00\x00\x00\x00\x00\x00\x00\x00\x00\x00\x00\x00\x00\x00\x00\x00\x00\x00\x00\x00\x00\x00\x00\x00\x00\x00\x00\x00\x00\x00\x00\x00\x00\x00\x00\x00\x00\x00\x00\x00\x00\x00\x00\x00\x00\x00\x00\x00\x00\x00\x00\x00\x00\x00\x00\x00\x00\x00\x00\x00\x00\x00\x00\x00\x00\x00\x00\x00\x00\x00\x00\x00\x00\x00\x00\x00\x00\x00\x00\x00\x00\x00\x00\x00\x00\x00\x00\x00\x03\x03\x03\x03\x03\x03\x03\x03\x03\x03\x03\x03\x03\x03\x03\x03\x03\x03\x03\x03\x03\x03\x03\x03\x03\x03\x03\x03\x03\x03\x03\x03\x03\x03\x03\x03\x03\x03\x03\x03\x03\x03\x03\x03\x03\x03\x03\x03\x00\x00\x00\x00\x00\x00\x00\x00\x00\x00\x00\x00\x00\x00\x00\x00\x00\x00\x00\x00\x00\x00\x00\x00\x00\x00\x00\x00\x00\x00\x00\x00\x00\x00\x00\x00\x00\x00\x00\x00\x00\x00\x00\x00\x00\x00\x00\x00\x00\x00\x00\x00\x00\x00\x00\x00\x00\x00\x00\x00\x00\x00\x00\x00\x00\x00\x00\x00\x00\x00\x00\x00\x00\x00\x00\x00\x00\x00\x00\x00\x00\x00\x00\x00\x00\x00\x00\x00\x00\x00\x00\x00\x00\x00\x00\x00\x00\x00\x00\x00\x00\x00\x00\x00\x00\x00\x00\x00\x00\x00\x00\x00\x00\x00\x00\x00\x00\x00\x00\x00\x00\x00\x00\x00\x00\x00\x00\x00\x00\x00\x00\x00\x00\x00\x00\x00\x00\x00\x00\x00\x00\x00\x00\x00\x00\x00\x00\x00\x00\x00\x00\x00\x00\x00\x00\x00\x00\x00\x00\x00\x00\x00\x00\x00\x00\x00\x00\x00\x00\x00\x00\x00\x00\x00\x00\x00\x00\x00\x00\x00\x00\x00\x00\x00\x00\x00\x00\x00\x00\x00\x00\x00\x00\x00\x00\x00\x00\x00\x00\x00\x00\x00\x00\x00\x00\x00\x00\x00\x00\x00\x00\x00\x00\x00\x00\x00\x00\x00\x00\x00\x00\x00\x00\x00\x00\x00\x00\x00\x00\x00\x00\x00\x00\x00\x00\x00\x00\x00\x00\x00\x00\x00\x00\x00\x00\x00\x00\x00\x00\x00\x00\x00\x00\x00\x00\x00\x00\x00\x00\x00\x00\x00\x00\x00\x00\x00\x00\x00\x00\x00\x00\x00\x00\x00\x00\x00\x00\x00\x00\x00\x00\x00\x00\x00\x00\x00\x00\x00\x00\x00\x00\x00\x00\x00\x00\x00\x00\x00\x00\x00\x00\x00\x00\x00\x00\x00\x00\x00\x00\x00\x00\x00\x00\x00\x00\x00\x00\x00\x00\x00\x00\x00\x00\x00\x00\x00\x00\x00\x00\x00\x00\x00\x00\x00\x00\x00\x00\x00\x00\x00\x00\x00\x00\x00\x00\x00\x00\x00\x00\x00\x00\x00\x00\x00\x00\x00\x00\x00\x00\x00\x00\x00\x00\x00\x00\x00\x00\x00\x00\x00\x00\x00\x00\x00\x00\x00\x00\x00\x00\x00\x00\x00\x00\x00\x00\x00\x00\x00\x00\x00\x00\x00\x00\x00\x00\x00\x00\x00\x00\x00\x00\x00\x00\x00\x00\x00\x00\x00\x00\x00\x00\x00\x00\x00\x00\x00\x00\x00\x00\x00\x00\x00\x00\x00\x00\x00\x00\x00\x00\x00\x00\x00\x00\x00\x00\x00\x00\x00\x00\x00\x00\x00\x00\x00\x00\x00\x00\x00\x00\x00\x00\x00\x00\x00\x00\x00\x00\x00\x00\x00\x00\x00\x00\x00\x00\x00\x00\x00\x00\x00\x00\x00\x00\x00\x00\x00\x00\x00\x00\x00\x00\x00\x00\x00\x00\x00\x00\x00\x00\x00\x00\x00\x00\x00\x00\x00\x00\x00\x00\x00\x00\x00\x00\x00\x00\x00\x00\x00\x00\x00\x00\x00\x00\x00\x00\x00\x00\x00\x00\x00\x00\x00\x00\x00\x00\x00\x00\x00\x00\x00\x00\x00\x00\x00\x00\x00\x00\x00\x00\x00\x00\x00\x00\x00\x00\x00\x00\x00\x00\x00\x00\x00\x00\x00\x00\x00\x00\x00\x00\x00\x00\x00\x00\x00\x00\x00\x00\x00\x00\x00\x00\x00\x00\x00\x00\x00\x00\x00\x00\x00\x00\x00\x00\x00\x00\x00\x00\x00\x00\x00\x00\x00\x00\x00\x00\x00\x00\x00\x00\x00\x00\x00\x00\x00\x00\x00\x00\x00\x00\x00\x00\x00\x00\x00\x00\x00\x00\x00\x00\x03\x03\x03\x03\x03\x03\x03\x03\x03\x03\x03\x03\x03\x03\x03\x03\x03\x03\x03\x03\x03\x03\x03\x03\x03\x03\x03\x03\x03\x03\x03\x03\x03\x03\x03\x03\x03\x03\x03\x03\x03\x03\x03\x03\x03\x03\x03\x03\x00\x00\x00\x00\x00\x00\x00\x00\x00\x00\x00\x00\x00\x00\x00\x00\x00\x00\x00\x00\x00\x00\x00\x00\x00\x00\x00\x00\x00\x00\x00\x00\x00\x00\x00\x00\x00\x00\x00\x00\x00\x00\x00\x00\x00\x00\x00\x00\x00\x00\x00\x00\x00\x00\x00\x00\x00\x00\x00\x00\x00\x00\x00\x00\x00\x00\x00\x00\x00\x00\x00\x00\x00\x00\x00\x00\x00\x00\x00\x00\x00\x00\x00\x00\x00\x00\x00\x00\x00\x00\x00\x00\x00\x00\x00\x00\x00\x00\x00\x00\x00\x00\x00\x00\x00\x00\x00\x00\x00\x00\x00\x00\x00\x00\x00\x00\x00\x00\x00\x00\x00\x00\x00\x00\x00\x00\x00\x00\x00\x00\x00\x00\x00\x00\x00\x00\x00\x00\x00\x00\x00\x00\x00\x00\x00\x00\x00\x00\x00\x00\x00\x00\x00\x00\x00\x00\x00\x00\x00\x00\x00\x00\x00\x00\x00\x00\x00\x00\x00\x00\x00\x00\x00\x00\x00\x00\x00\x00\x00\x03\x03\x03\x03\x03\x03\x03\x03\x03\x03\x03\x03\x03\x03\x03\x03\x03\x03\x03\x03\x03\x03\x03\x03\x03\x03\x03\x03\x03\x03\x03\x03\x03\x03\x03\x03\x03\x03\x03\x03\x03\x03\x03\x03\x03\x03\x03\x03\x00\x00\x00\x00\x00\x00\x00\x00\x00\x00\x00\x00\x00\x00\x00\x00\x00\x00\x00\x00\x00\x00\x00\x00\x00\x00\x00\x00\x00\x00\x00\x00\x00\x00\x00\x00\x00\x00\x00\x00\x00\x00\x00\x00\x00\x00\x00\x00\x00\x00\x00\x00\x00\x00\x00\x00\x00\x00\x00\x00\x00\x00\x00\x00\x00\x00\x00\x00\x00\x00\x00\x00\x00\x00\x00\x00\x00\x00\x00\x00\x00\x00\x00\x00\x00\x00\x00\x00\x00\x00\x00\x00\x00\x00\x00\x00\x00\x00\x00\x00\x00\x00\x00\x00\x00\x00\x00\x00\x00\x00\x00\x00\x00\x00\x00\x00\x00\x00\x00\x00\x00\x00\x00\x00\x00\x00\x00\x00\x00\x00\x00\x00\x00\x00\x00\x00\x00\x00\x00\x00\x00\x00\x00\x00\x00\x00\x00\x00\x00\x00\x00\x00\x00\x00\x00\x00\x00\x00\x00\x00\x00\x00\x00\x00\x00\x00\x00\x00\x00\x00\x00\x00\x00\x00\x00\x00\x00\x00\x00\x00\x00\x00\x00\x00\x00\x00\x00\x00\x00\x00\x00\x00\x00\x00\x00\x00\x00\x00\x00\x00\x00\x00\x00\x00\x00\x00\x00\x00\x00\x00\x00\x00\x00\x00\x00\x00\x00\x00\x00\x00\x00\x00\x00\x00\x00\x00\x00\x00\x00\x00\x00\x00\x00\x00\x00\x00\x00\x00\x00\x00\x00\x00\x00\x00\x00\x00\x00\x00\x00\x00\x00\x00\x00\x00\x00\x00\x00\x00\x00\x00\x00\x00\x00\x00\x00\x00\x00\x00\x00\x00\x00\x00\x00\x00\x00\x00\x00\x00\x00\x00\x00\x00\x00\x00\x00\x00\x00\x00\x00\x00\x00\x00\x00\x00\x00\x00\x00\x00\x00\x00\x00\x00\x00\x00\x00\x00\x00\x00\x00\x00\x00\x00\x00\x00\x00\x00\x00\x00\x00\x00\x00\x00\x00\x00\x00\x00\x00\x00\x00\x00\x00\x00\x00\x00\x00\x00\x00\x00\x00\x00\x00\x00\x00\x00\x00\x00\x00\x00\x00\x00\x00\x00\x00\x00\x00\x00\x00\x00\x00\x00\x00\x00\x00\x00\x00\x00\x00\x00\x00\x00\x00\x00\x00\x00\x00\x00\x00\x00\x00\x00\x00\x00\x00\x00\x00\x00\x00\x00\x00\x00\x00\x00\x00\x00\x00\x00\x00\x00\x00\x00\x00\x00\x00\x00\x00\x00\x00\x00\x00\x00\x00\x00\x00\x00\x00\x00\x00\x00\x00\x00\x00\x00\x00\x00\x00\x00\x00\x00\x00\x00\x00\x00\x00\x00\x00\x00\x00\x00\x00\x00\x00\x00\x00\x00\x00\x00\x00\x00\x00\x00\x00\x00\x00\x00\x00\x00\x00\x00\x00\x00\x00\x00\x00\x00\x00\x00\x00\x00\x00\x00\x00\x00\x00\x00\x00\x00\x00\x00\x00\x00\x00\x00\x00\x00\x00\x00\x00\x00\x00\x00\x00\x00\x00\x00\x00\x00\x00'
p1302
sasS'lhc:fillnumber'
p1303
(lp1304
(dp1305
g5
L189L
sg6
I01
sg7
I1
sg8
S'5730'
p1306
sasS'olc:beam1intensity'
p1307
(lp1308
(dp1309
g5
I1
sg6
I01
sg7
I1
sg8
S'297.601'
p1310
sa(dp1311
g5
I2
sg6
I01
sg7
I2
sg8
S'297.452'
p1312
sa(dp1313
g5
I3
sg6
I01
sg7
I3
sg8
S'297.315'
p1314
sa(dp1315
g5
I4
sg6
I01
sg7
I4
sg8
S'297.164'
p1316
sa(dp1317
g5
I5
sg6
I01
sg7
I5
sg8
S'297.025'
p1318
sa(dp1319
g5
I6
sg6
I01
sg7
I6
sg8
S'296.88'
p1320
sa(dp1321
g5
I7
sg6
I01
sg7
I7
sg8
S'296.737'
p1322
sa(dp1323
g5
I8
sg6
I01
sg7
I8
sg8
S'296.653'
p1324
sa(dp1325
g5
I9
sg6
I01
sg7
I9
sg8
S'296.608'
p1326
sa(dp1327
g5
I10
sg6
I01
sg7
I10
sg8
S'296.568'
p1328
sa(dp1329
g5
I11
sg6
I01
sg7
I11
sg8
S'296.541'
p1330
sa(dp1331
g5
I12
sg6
I01
sg7
I12
sg8
S'296.51'
p1332
sa(dp1333
g5
I13
sg6
I01
sg7
I13
sg8
S'296.496'
p1334
sa(dp1335
g5
I14
sg6
I01
sg7
I14
sg8
S'296.468'
p1336
sa(dp1337
g5
I15
sg6
I01
sg7
I15
sg8
S'296.439'
p1338
sa(dp1339
g5
I16
sg6
I01
sg7
I16
sg8
S'296.418'
p1340
sa(dp1341
g5
I17
sg6
I01
sg7
I17
sg8
S'296.392'
p1342
sa(dp1343
g5
I18
sg6
I01
sg7
I18
sg8
S'296.36'
p1344
sa(dp1345
g5
I19
sg6
I01
sg7
I19
sg8
S'296.337'
p1346
sa(dp1347
g5
I20
sg6
I01
sg7
I20
sg8
S'296.319'
p1348
sa(dp1349
g5
I21
sg6
I01
sg7
I21
sg8
S'296.302'
p1350
sa(dp1351
g5
I22
sg6
I01
sg7
I22
sg8
S'296.277'
p1352
sa(dp1353
g5
I23
sg6
I01
sg7
I23
sg8
S'296.245'
p1354
sa(dp1355
g5
I24
sg6
I01
sg7
I24
sg8
S'296.219'
p1356
sa(dp1357
g5
I25
sg6
I01
sg7
I25
sg8
S'296.188'
p1358
sa(dp1359
g5
I26
sg6
I01
sg7
I26
sg8
S'296.171'
p1360
sa(dp1361
g5
I27
sg6
I01
sg7
I27
sg8
S'296.148'
p1362
sa(dp1363
g5
I28
sg6
I01
sg7
I28
sg8
S'296.115'
p1364
sa(dp1365
g5
I29
sg6
I01
sg7
I29
sg8
S'296.085'
p1366
sa(dp1367
g5
I30
sg6
I01
sg7
I30
sg8
S'296.07'
p1368
sa(dp1369
g5
I31
sg6
I01
sg7
I31
sg8
S'296.046'
p1370
sa(dp1371
g5
I32
sg6
I01
sg7
I32
sg8
S'296.021'
p1372
sa(dp1373
g5
I33
sg6
I01
sg7
I33
sg8
S'295.996'
p1374
sa(dp1375
g5
I34
sg6
I01
sg7
I34
sg8
S'295.971'
p1376
sa(dp1377
g5
I35
sg6
I01
sg7
I35
sg8
S'295.953'
p1378
sa(dp1379
g5
I36
sg6
I01
sg7
I36
sg8
S'295.917'
p1380
sa(dp1381
g5
I37
sg6
I01
sg7
I37
sg8
S'295.897'
p1382
sa(dp1383
g5
I38
sg6
I01
sg7
I38
sg8
S'295.875'
p1384
sa(dp1385
g5
I39
sg6
I01
sg7
I39
sg8
S'295.848'
p1386
sa(dp1387
g5
I40
sg6
I01
sg7
I40
sg8
S'295.825'
p1388
sa(dp1389
g5
I41
sg6
I01
sg7
I41
sg8
S'295.792'
p1390
sa(dp1391
g5
I42
sg6
I01
sg7
I42
sg8
S'295.76'
p1392
sa(dp1393
g5
I43
sg6
I01
sg7
I43
sg8
S'295.74'
p1394
sa(dp1395
g5
I44
sg6
I01
sg7
I44
sg8
S'295.716'
p1396
sa(dp1397
g5
I45
sg6
I01
sg7
I45
sg8
S'295.692'
p1398
sa(dp1399
g5
I46
sg6
I01
sg7
I46
sg8
S'295.674'
p1400
sa(dp1401
g5
I47
sg6
I01
sg7
I47
sg8
S'295.652'
p1402
sa(dp1403
g5
I48
sg6
I01
sg7
I48
sg8
S'295.625'
p1404
sa(dp1405
g5
I49
sg6
I01
sg7
I49
sg8
S'295.59'
p1406
sa(dp1407
g5
I50
sg6
I01
sg7
I50
sg8
S'295.566'
p1408
sa(dp1409
g5
I51
sg6
I01
sg7
I51
sg8
S'295.538'
p1410
sa(dp1411
g5
I52
sg6
I01
sg7
I52
sg8
S'295.496'
p1412
sa(dp1413
g5
I53
sg6
I01
sg7
I53
sg8
S'295.453'
p1414
sa(dp1415
g5
I54
sg6
I01
sg7
I54
sg8
S'295.361'
p1416
sa(dp1417
g5
I55
sg6
I01
sg7
I55
sg8
S'295.223'
p1418
sa(dp1419
g5
I56
sg6
I01
sg7
I56
sg8
S'295.072'
p1420
sa(dp1421
g5
I57
sg6
I01
sg7
I57
sg8
S'294.933'
p1422
sa(dp1423
g5
I58
sg6
I01
sg7
I58
sg8
S'294.786'
p1424
sa(dp1425
g5
I59
sg6
I01
sg7
I59
sg8
S'294.697'
p1426
sa(dp1427
g5
I60
sg6
I01
sg7
I60
sg8
S'294.673'
p1428
sa(dp1429
g5
I61
sg6
I01
sg7
I61
sg8
S'294.648'
p1430
sa(dp1431
g5
I62
sg6
I01
sg7
I62
sg8
S'294.628'
p1432
sa(dp1433
g5
I63
sg6
I01
sg7
I63
sg8
S'294.605'
p1434
sa(dp1435
g5
I64
sg6
I01
sg7
I64
sg8
S'294.577'
p1436
sa(dp1437
g5
I65
sg6
I01
sg7
I65
sg8
S'294.554'
p1438
sa(dp1439
g5
I66
sg6
I01
sg7
I66
sg8
S'294.518'
p1440
sa(dp1441
g5
I67
sg6
I01
sg7
I67
sg8
S'294.49'
p1442
sa(dp1443
g5
I68
sg6
I01
sg7
I68
sg8
S'294.468'
p1444
sa(dp1445
g5
I69
sg6
I01
sg7
I69
sg8
S'294.437'
p1446
sa(dp1447
g5
I70
sg6
I01
sg7
I70
sg8
S'294.426'
p1448
sa(dp1449
g5
I71
sg6
I01
sg7
I71
sg8
S'294.403'
p1450
sa(dp1451
g5
I72
sg6
I01
sg7
I72
sg8
S'294.379'
p1452
sa(dp1453
g5
I73
sg6
I01
sg7
I73
sg8
S'294.351'
p1454
sa(dp1455
g5
I74
sg6
I01
sg7
I74
sg8
S'294.327'
p1456
sa(dp1457
g5
I75
sg6
I01
sg7
I75
sg8
S'294.295'
p1458
sa(dp1459
g5
I76
sg6
I01
sg7
I76
sg8
S'294.278'
p1460
sa(dp1461
g5
I77
sg6
I01
sg7
I77
sg8
S'294.249'
p1462
sa(dp1463
g5
I78
sg6
I01
sg7
I78
sg8
S'294.214'
p1464
sa(dp1465
g5
I79
sg6
I01
sg7
I79
sg8
S'294.183'
p1466
sa(dp1467
g5
I80
sg6
I01
sg7
I80
sg8
S'294.158'
p1468
sa(dp1469
g5
I81
sg6
I01
sg7
I81
sg8
S'294.128'
p1470
sa(dp1471
g5
I82
sg6
I01
sg7
I82
sg8
S'294.098'
p1472
sa(dp1473
g5
I83
sg6
I01
sg7
I83
sg8
S'294.077'
p1474
sa(dp1475
g5
I84
sg6
I01
sg7
I84
sg8
S'294.066'
p1476
sa(dp1477
g5
I85
sg6
I01
sg7
I85
sg8
S'294.044'
p1478
sa(dp1479
g5
I86
sg6
I01
sg7
I86
sg8
S'294.017'
p1480
sa(dp1481
g5
I87
sg6
I01
sg7
I87
sg8
S'293.991'
p1482
sa(dp1483
g5
I88
sg6
I01
sg7
I88
sg8
S'293.956'
p1484
sa(dp1485
g5
I89
sg6
I01
sg7
I89
sg8
S'293.939'
p1486
sa(dp1487
g5
I90
sg6
I01
sg7
I90
sg8
S'293.91'
p1488
sa(dp1489
g5
I91
sg6
I01
sg7
I91
sg8
S'293.882'
p1490
sa(dp1491
g5
I92
sg6
I01
sg7
I92
sg8
S'293.861'
p1492
sa(dp1493
g5
I93
sg6
I01
sg7
I93
sg8
S'293.786'
p1494
sa(dp1495
g5
I94
sg6
I01
sg7
I94
sg8
S'293.657'
p1496
sa(dp1497
g5
I95
sg6
I01
sg7
I95
sg8
S'293.574'
p1498
sa(dp1499
g5
I96
sg6
I01
sg7
I96
sg8
S'293.534'
p1500
sa(dp1501
g5
I97
sg6
I01
sg7
I97
sg8
S'293.438'
p1502
sa(dp1503
g5
I98
sg6
I01
sg7
I98
sg8
S'293.342'
p1504
sa(dp1505
g5
I99
sg6
I01
sg7
I99
sg8
S'293.311'
p1506
sa(dp1507
g5
I100
sg6
I01
sg7
I100
sg8
S'293.291'
p1508
sa(dp1509
g5
I101
sg6
I01
sg7
I101
sg8
S'293.267'
p1510
sa(dp1511
g5
I102
sg6
I01
sg7
I102
sg8
S'293.248'
p1512
sa(dp1513
g5
I103
sg6
I01
sg7
I103
sg8
S'293.228'
p1514
sa(dp1515
g5
I104
sg6
I01
sg7
I104
sg8
S'293.194'
p1516
sa(dp1517
g5
I105
sg6
I01
sg7
I105
sg8
S'293.168'
p1518
sa(dp1519
g5
I106
sg6
I01
sg7
I106
sg8
S'293.144'
p1520
sa(dp1521
g5
I107
sg6
I01
sg7
I107
sg8
S'293.115'
p1522
sa(dp1523
g5
I108
sg6
I01
sg7
I108
sg8
S'293.088'
p1524
sa(dp1525
g5
I109
sg6
I01
sg7
I109
sg8
S'293.064'
p1526
sa(dp1527
g5
I110
sg6
I01
sg7
I110
sg8
S'293.037'
p1528
sa(dp1529
g5
I111
sg6
I01
sg7
I111
sg8
S'293.015'
p1530
sa(dp1531
g5
I112
sg6
I01
sg7
I112
sg8
S'292.983'
p1532
sa(dp1533
g5
I113
sg6
I01
sg7
I113
sg8
S'292.954'
p1534
sa(dp1535
g5
I114
sg6
I01
sg7
I114
sg8
S'292.938'
p1536
sa(dp1537
g5
I115
sg6
I01
sg7
I115
sg8
S'292.91'
p1538
sa(dp1539
g5
I116
sg6
I01
sg7
I116
sg8
S'292.89'
p1540
sa(dp1541
g5
I117
sg6
I01
sg7
I117
sg8
S'292.849'
p1542
sa(dp1543
g5
I118
sg6
I01
sg7
I118
sg8
S'292.813'
p1544
sa(dp1545
g5
I119
sg6
I01
sg7
I119
sg8
S'292.796'
p1546
sa(dp1547
g5
I120
sg6
I01
sg7
I120
sg8
S'292.77'
p1548
sa(dp1549
g5
I121
sg6
I01
sg7
I121
sg8
S'292.75'
p1550
sa(dp1551
g5
I122
sg6
I01
sg7
I122
sg8
S'292.726'
p1552
sa(dp1553
g5
I123
sg6
I01
sg7
I123
sg8
S'292.704'
p1554
sa(dp1555
g5
I124
sg6
I01
sg7
I124
sg8
S'292.611'
p1556
sa(dp1557
g5
I125
sg6
I01
sg7
I125
sg8
S'292.474'
p1558
sa(dp1559
g5
I126
sg6
I01
sg7
I126
sg8
S'292.408'
p1560
sa(dp1561
g5
I127
sg6
I01
sg7
I127
sg8
S'292.384'
p1562
sa(dp1563
g5
I128
sg6
I01
sg7
I128
sg8
S'292.359'
p1564
sa(dp1565
g5
I129
sg6
I01
sg7
I129
sg8
S'292.33'
p1566
sa(dp1567
g5
I130
sg6
I01
sg7
I130
sg8
S'292.302'
p1568
sa(dp1569
g5
I131
sg6
I01
sg7
I131
sg8
S'292.283'
p1570
sa(dp1571
g5
I132
sg6
I01
sg7
I132
sg8
S'292.249'
p1572
sa(dp1573
g5
I133
sg6
I01
sg7
I133
sg8
S'292.217'
p1574
sa(dp1575
g5
I134
sg6
I01
sg7
I134
sg8
S'292.201'
p1576
sa(dp1577
g5
I135
sg6
I01
sg7
I135
sg8
S'292.187'
p1578
sa(dp1579
g5
I136
sg6
I01
sg7
I136
sg8
S'292.153'
p1580
sa(dp1581
g5
I137
sg6
I01
sg7
I137
sg8
S'292.134'
p1582
sa(dp1583
g5
I138
sg6
I01
sg7
I138
sg8
S'292.111'
p1584
sa(dp1585
g5
I139
sg6
I01
sg7
I139
sg8
S'292.088'
p1586
sa(dp1587
g5
I140
sg6
I01
sg7
I140
sg8
S'292.052'
p1588
sa(dp1589
g5
I141
sg6
I01
sg7
I141
sg8
S'292.033'
p1590
sa(dp1591
g5
I142
sg6
I01
sg7
I142
sg8
S'292.012'
p1592
sa(dp1593
g5
I143
sg6
I01
sg7
I143
sg8
S'291.985'
p1594
sa(dp1595
g5
I144
sg6
I01
sg7
I144
sg8
S'291.967'
p1596
sa(dp1597
g5
I145
sg6
I01
sg7
I145
sg8
S'291.934'
p1598
sa(dp1599
g5
I146
sg6
I01
sg7
I146
sg8
S'291.913'
p1600
sa(dp1601
g5
I147
sg6
I01
sg7
I147
sg8
S'291.889'
p1602
sa(dp1603
g5
I148
sg6
I01
sg7
I148
sg8
S'291.862'
p1604
sa(dp1605
g5
I149
sg6
I01
sg7
I149
sg8
S'291.833'
p1606
sa(dp1607
g5
I150
sg6
I01
sg7
I150
sg8
S'291.805'
p1608
sa(dp1609
g5
I151
sg6
I01
sg7
I151
sg8
S'291.788'
p1610
sa(dp1611
g5
I152
sg6
I01
sg7
I152
sg8
S'291.764'
p1612
sa(dp1613
g5
I153
sg6
I01
sg7
I153
sg8
S'291.741'
p1614
sa(dp1615
g5
I154
sg6
I01
sg7
I154
sg8
S'291.709'
p1616
sa(dp1617
g5
I155
sg6
I01
sg7
I155
sg8
S'291.691'
p1618
sa(dp1619
g5
I156
sg6
I01
sg7
I156
sg8
S'291.672'
p1620
sa(dp1621
g5
I157
sg6
I01
sg7
I157
sg8
S'291.644'
p1622
sa(dp1623
g5
I158
sg6
I01
sg7
I158
sg8
S'291.62'
p1624
sa(dp1625
g5
I159
sg6
I01
sg7
I159
sg8
S'291.593'
p1626
sa(dp1627
g5
I160
sg6
I01
sg7
I160
sg8
S'291.57'
p1628
sa(dp1629
g5
I161
sg6
I01
sg7
I161
sg8
S'291.549'
p1630
sa(dp1631
g5
I162
sg6
I01
sg7
I162
sg8
S'291.521'
p1632
sa(dp1633
g5
I163
sg6
I01
sg7
I163
sg8
S'291.502'
p1634
sa(dp1635
g5
I164
sg6
I01
sg7
I164
sg8
S'291.475'
p1636
sa(dp1637
g5
I165
sg6
I01
sg7
I165
sg8
S'291.445'
p1638
sa(dp1639
g5
I166
sg6
I01
sg7
I166
sg8
S'291.421'
p1640
sa(dp1641
g5
I167
sg6
I01
sg7
I167
sg8
S'291.39'
p1642
sa(dp1643
g5
I168
sg6
I01
sg7
I168
sg8
S'291.34'
p1644
sa(dp1645
g5
I169
sg6
I01
sg7
I169
sg8
S'291.241'
p1646
sa(dp1647
g5
I170
sg6
I01
sg7
I170
sg8
S'291.095'
p1648
sa(dp1649
g5
I171
sg6
I01
sg7
I171
sg8
S'290.957'
p1650
sa(dp1651
g5
I172
sg6
I01
sg7
I172
sg8
S'290.817'
p1652
sa(dp1653
g5
I173
sg6
I01
sg7
I173
sg8
S'290.74'
p1654
sa(dp1655
g5
I174
sg6
I01
sg7
I174
sg8
S'290.656'
p1656
sa(dp1657
g5
I175
sg6
I01
sg7
I175
sg8
S'290.579'
p1658
sa(dp1659
g5
I176
sg6
I01
sg7
I176
sg8
S'290.491'
p1660
sa(dp1661
g5
I177
sg6
I01
sg7
I177
sg8
S'290.384'
p1662
sa(dp1663
g5
I178
sg6
I01
sg7
I178
sg8
S'290.333'
p1664
sa(dp1665
g5
I179
sg6
I01
sg7
I179
sg8
S'290.319'
p1666
sa(dp1667
g5
I180
sg6
I01
sg7
I180
sg8
S'290.296'
p1668
sa(dp1669
g5
I181
sg6
I01
sg7
I181
sg8
S'290.268'
p1670
sa(dp1671
g5
I182
sg6
I01
sg7
I182
sg8
S'290.192'
p1672
sa(dp1673
g5
I183
sg6
I01
sg7
I183
sg8
S'290.06'
p1674
sa(dp1675
g5
I184
sg6
I01
sg7
I184
sg8
S'289.919'
p1676
sa(dp1677
g5
I185
sg6
I01
sg7
I185
sg8
S'289.772'
p1678
sa(dp1679
g5
I186
sg6
I01
sg7
I186
sg8
S'289.631'
p1680
sa(dp1681
g5
I187
sg6
I01
sg7
I187
sg8
S'289.485'
p1682
sa(dp1683
g5
I188
sg6
I01
sg7
I188
sg8
S'289.339'
p1684
sa(dp1685
g5
L189L
sg6
I01
sg7
I189
sg8
S'288.635'
p1686
sasS'Start and endtime'
p1687
S'1496145755.407, 1496149366.487'
p1688
sS'olc:lumi:0'
p1689
(lp1690
(dp1691
g5
L1L
sg6
I01
sg7
L1L
sg8
F1407.02
sa(dp1692
g5
L2L
sg6
I01
sg7
L2L
sg8
F1405.14
sa(dp1693
g5
L3L
sg6
I01
sg7
L3L
sg8
F1403.29
sa(dp1694
g5
L4L
sg6
I01
sg7
L4L
sg8
F1399.79
sa(dp1695
g5
L5L
sg6
I01
sg7
L5L
sg8
F1398.06
sa(dp1696
g5
L6L
sg6
I01
sg7
L6L
sg8
F1396.55
sa(dp1697
g5
L7L
sg6
I01
sg7
L7L
sg8
F1394.49
sa(dp1698
g5
L8L
sg6
I01
sg7
L8L
sg8
F1392.74
sa(dp1699
g5
L9L
sg6
I01
sg7
L9L
sg8
F1393.16
sa(dp1700
g5
L10L
sg6
I01
sg7
L10L
sg8
F1391.38
sa(dp1701
g5
L11L
sg6
I01
sg7
L11L
sg8
F1390.93
sa(dp1702
g5
L12L
sg6
I01
sg7
L12L
sg8
F1391.66
sa(dp1703
g5
L13L
sg6
I01
sg7
L13L
sg8
F1391.36
sa(dp1704
g5
L14L
sg6
I01
sg7
L14L
sg8
F1390.7
sa(dp1705
g5
L15L
sg6
I01
sg7
L15L
sg8
F1390.38
sa(dp1706
g5
L16L
sg6
I01
sg7
L16L
sg8
F1390.85
sa(dp1707
g5
L17L
sg6
I01
sg7
L17L
sg8
F1390.17
sa(dp1708
g5
L18L
sg6
I01
sg7
L18L
sg8
F1389.83
sa(dp1709
g5
L19L
sg6
I01
sg7
L19L
sg8
F1389.67
sa(dp1710
g5
L20L
sg6
I01
sg7
L20L
sg8
F1389.25
sa(dp1711
g5
L21L
sg6
I01
sg7
L21L
sg8
F1388.97
sa(dp1712
g5
L22L
sg6
I01
sg7
L22L
sg8
F1388.68
sa(dp1713
g5
L23L
sg6
I01
sg7
L23L
sg8
F1388.17
sa(dp1714
g5
L24L
sg6
I01
sg7
L24L
sg8
F1387.72
sa(dp1715
g5
L25L
sg6
I01
sg7
L25L
sg8
F1387.22
sa(dp1716
g5
L26L
sg6
I01
sg7
L26L
sg8
F1386.45
sa(dp1717
g5
L27L
sg6
I01
sg7
L27L
sg8
F1385.85
sa(dp1718
g5
L28L
sg6
I01
sg7
L28L
sg8
F1385.61
sa(dp1719
g5
L29L
sg6
I01
sg7
L29L
sg8
F1385.4
sa(dp1720
g5
L30L
sg6
I01
sg7
L30L
sg8
F1386.28
sa(dp1721
g5
L31L
sg6
I01
sg7
L31L
sg8
F1385.85
sa(dp1722
g5
L32L
sg6
I01
sg7
L32L
sg8
F1385.27
sa(dp1723
g5
L33L
sg6
I01
sg7
L33L
sg8
F1384.05
sa(dp1724
g5
L34L
sg6
I01
sg7
L34L
sg8
F1384.1
sa(dp1725
g5
L35L
sg6
I01
sg7
L35L
sg8
F1383.82
sa(dp1726
g5
L36L
sg6
I01
sg7
L36L
sg8
F1384.32
sa(dp1727
g5
L37L
sg6
I01
sg7
L37L
sg8
F1384.69
sa(dp1728
g5
L38L
sg6
I01
sg7
L38L
sg8
F1384.94
sa(dp1729
g5
L39L
sg6
I01
sg7
L39L
sg8
F1385.39
sa(dp1730
g5
L40L
sg6
I01
sg7
L40L
sg8
F1385.02
sa(dp1731
g5
L41L
sg6
I01
sg7
L41L
sg8
F1385.06
sa(dp1732
g5
L42L
sg6
I01
sg7
L42L
sg8
F1383.41
sa(dp1733
g5
L43L
sg6
I01
sg7
L43L
sg8
F1382.24
sa(dp1734
g5
L44L
sg6
I01
sg7
L44L
sg8
F1381.91
sa(dp1735
g5
L45L
sg6
I01
sg7
L45L
sg8
F1381.87
sa(dp1736
g5
L46L
sg6
I01
sg7
L46L
sg8
F1381.63
sa(dp1737
g5
L47L
sg6
I01
sg7
L47L
sg8
F1381.55
sa(dp1738
g5
L48L
sg6
I01
sg7
L48L
sg8
F1381.23
sa(dp1739
g5
L49L
sg6
I01
sg7
L49L
sg8
F1380.94
sa(dp1740
g5
L50L
sg6
I01
sg7
L50L
sg8
F1380.82
sa(dp1741
g5
L51L
sg6
I01
sg7
L51L
sg8
F1380.34
sa(dp1742
g5
L52L
sg6
I01
sg7
L52L
sg8
F1379.48
sa(dp1743
g5
L53L
sg6
I01
sg7
L53L
sg8
F1378.82
sa(dp1744
g5
L54L
sg6
I01
sg7
L54L
sg8
F1378.39
sa(dp1745
g5
L55L
sg6
I01
sg7
L55L
sg8
F1376.97
sa(dp1746
g5
L56L
sg6
I01
sg7
L56L
sg8
F1373.78
sa(dp1747
g5
L57L
sg6
I01
sg7
L57L
sg8
F1370.92
sa(dp1748
g5
L58L
sg6
I01
sg7
L58L
sg8
F1368.17
sa(dp1749
g5
L59L
sg6
I01
sg7
L59L
sg8
F1368.58
sa(dp1750
g5
L60L
sg6
I01
sg7
L60L
sg8
F1368.25
sa(dp1751
g5
L61L
sg6
I01
sg7
L61L
sg8
F1367.8
sa(dp1752
g5
L62L
sg6
I01
sg7
L62L
sg8
F1367.77
sa(dp1753
g5
L63L
sg6
I01
sg7
L63L
sg8
F1367.07
sa(dp1754
g5
L64L
sg6
I01
sg7
L64L
sg8
F1367.2
sa(dp1755
g5
L65L
sg6
I01
sg7
L65L
sg8
F1367.15
sa(dp1756
g5
L66L
sg6
I01
sg7
L66L
sg8
F1366.76
sa(dp1757
g5
L67L
sg6
I01
sg7
L67L
sg8
F1366.69
sa(dp1758
g5
L68L
sg6
I01
sg7
L68L
sg8
F1365.75
sa(dp1759
g5
L69L
sg6
I01
sg7
L69L
sg8
F1365.67
sa(dp1760
g5
L70L
sg6
I01
sg7
L70L
sg8
F1365.18
sa(dp1761
g5
L71L
sg6
I01
sg7
L71L
sg8
F1364.62
sa(dp1762
g5
L72L
sg6
I01
sg7
L72L
sg8
F1364.13
sa(dp1763
g5
L73L
sg6
I01
sg7
L73L
sg8
F1366.01
sa(dp1764
g5
L74L
sg6
I01
sg7
L74L
sg8
F1362.37
sa(dp1765
g5
L75L
sg6
I01
sg7
L75L
sg8
F1361.43
sa(dp1766
g5
L76L
sg6
I01
sg7
L76L
sg8
F1362.35
sa(dp1767
g5
L77L
sg6
I01
sg7
L77L
sg8
F1362.33
sa(dp1768
g5
L78L
sg6
I01
sg7
L78L
sg8
F1362.31
sa(dp1769
g5
L79L
sg6
I01
sg7
L79L
sg8
F1362.26
sa(dp1770
g5
L80L
sg6
I01
sg7
L80L
sg8
F1361.73
sa(dp1771
g5
L81L
sg6
I01
sg7
L81L
sg8
F1361.38
sa(dp1772
g5
L82L
sg6
I01
sg7
L82L
sg8
F1360.07
sa(dp1773
g5
L83L
sg6
I01
sg7
L83L
sg8
F1359.93
sa(dp1774
g5
L84L
sg6
I01
sg7
L84L
sg8
F1359.92
sa(dp1775
g5
L85L
sg6
I01
sg7
L85L
sg8
F1359.54
sa(dp1776
g5
L86L
sg6
I01
sg7
L86L
sg8
F1360.21
sa(dp1777
g5
L87L
sg6
I01
sg7
L87L
sg8
F1359.86
sa(dp1778
g5
L88L
sg6
I01
sg7
L88L
sg8
F1359.92
sa(dp1779
g5
L89L
sg6
I01
sg7
L89L
sg8
F1360.27
sa(dp1780
g5
L90L
sg6
I01
sg7
L90L
sg8
F1359.87
sa(dp1781
g5
L91L
sg6
I01
sg7
L91L
sg8
F1359.92
sa(dp1782
g5
L92L
sg6
I01
sg7
L92L
sg8
F1359.61
sa(dp1783
g5
L93L
sg6
I01
sg7
L93L
sg8
F1358.56
sa(dp1784
g5
L94L
sg6
I01
sg7
L94L
sg8
F1353.84
sa(dp1785
g5
L95L
sg6
I01
sg7
L95L
sg8
F1356.17
sa(dp1786
g5
L96L
sg6
I01
sg7
L96L
sg8
F1357.29
sa(dp1787
g5
L97L
sg6
I01
sg7
L97L
sg8
F1352.3
sa(dp1788
g5
L98L
sg6
I01
sg7
L98L
sg8
F1351.26
sa(dp1789
g5
L99L
sg6
I01
sg7
L99L
sg8
F1350.9
sa(dp1790
g5
L100L
sg6
I01
sg7
L100L
sg8
F1350.87
sa(dp1791
g5
L101L
sg6
I01
sg7
L101L
sg8
F1350.25
sa(dp1792
g5
L102L
sg6
I01
sg7
L102L
sg8
F1350.08
sa(dp1793
g5
L103L
sg6
I01
sg7
L103L
sg8
F1444.82
sa(dp1794
g5
L104L
sg6
I01
sg7
L104L
sg8
F1348.01
sa(dp1795
g5
L105L
sg6
I01
sg7
L105L
sg8
F1348.45
sa(dp1796
g5
L106L
sg6
I01
sg7
L106L
sg8
F1347.43
sa(dp1797
g5
L107L
sg6
I01
sg7
L107L
sg8
F1347.78
sa(dp1798
g5
L108L
sg6
I01
sg7
L108L
sg8
F1346.51
sa(dp1799
g5
L109L
sg6
I01
sg7
L109L
sg8
F1346.29
sa(dp1800
g5
L110L
sg6
I01
sg7
L110L
sg8
F1346.25
sa(dp1801
g5
L111L
sg6
I01
sg7
L111L
sg8
F1345.0
sa(dp1802
g5
L112L
sg6
I01
sg7
L112L
sg8
F1344.68
sa(dp1803
g5
L113L
sg6
I01
sg7
L113L
sg8
F1344.37
sa(dp1804
g5
L114L
sg6
I01
sg7
L114L
sg8
F1343.24
sa(dp1805
g5
L115L
sg6
I01
sg7
L115L
sg8
F1342.57
sa(dp1806
g5
L116L
sg6
I01
sg7
L116L
sg8
F1342.33
sa(dp1807
g5
L117L
sg6
I01
sg7
L117L
sg8
F1342.42
sa(dp1808
g5
L118L
sg6
I01
sg7
L118L
sg8
F1342.23
sa(dp1809
g5
L119L
sg6
I01
sg7
L119L
sg8
F1342.23
sa(dp1810
g5
L120L
sg6
I01
sg7
L120L
sg8
F1341.92
sa(dp1811
g5
L121L
sg6
I01
sg7
L121L
sg8
F1342.11
sa(dp1812
g5
L122L
sg6
I01
sg7
L122L
sg8
F1341.85
sa(dp1813
g5
L123L
sg6
I01
sg7
L123L
sg8
F1341.27
sa(dp1814
g5
L124L
sg6
I01
sg7
L124L
sg8
F1340.28
sa(dp1815
g5
L125L
sg6
I01
sg7
L125L
sg8
F1340.55
sa(dp1816
g5
L126L
sg6
I01
sg7
L126L
sg8
F1339.07
sa(dp1817
g5
L127L
sg6
I01
sg7
L127L
sg8
F1338.94
sa(dp1818
g5
L128L
sg6
I01
sg7
L128L
sg8
F1339.62
sa(dp1819
g5
L129L
sg6
I01
sg7
L129L
sg8
F1339.2
sa(dp1820
g5
L130L
sg6
I01
sg7
L130L
sg8
F1337.73
sa(dp1821
g5
L131L
sg6
I01
sg7
L131L
sg8
F1336.95
sa(dp1822
g5
L132L
sg6
I01
sg7
L132L
sg8
F1335.89
sa(dp1823
g5
L133L
sg6
I01
sg7
L133L
sg8
F1334.47
sa(dp1824
g5
L134L
sg6
I01
sg7
L134L
sg8
F1333.45
sa(dp1825
g5
L135L
sg6
I01
sg7
L135L
sg8
F1332.6
sa(dp1826
g5
L136L
sg6
I01
sg7
L136L
sg8
F1332.67
sa(dp1827
g5
L137L
sg6
I01
sg7
L137L
sg8
F1333.01
sa(dp1828
g5
L138L
sg6
I01
sg7
L138L
sg8
F1331.53
sa(dp1829
g5
L139L
sg6
I01
sg7
L139L
sg8
F1331.88
sa(dp1830
g5
L140L
sg6
I01
sg7
L140L
sg8
F1331.4
sa(dp1831
g5
L141L
sg6
I01
sg7
L141L
sg8
F1331.29
sa(dp1832
g5
L142L
sg6
I01
sg7
L142L
sg8
F1331.03
sa(dp1833
g5
L143L
sg6
I01
sg7
L143L
sg8
F1331.67
sa(dp1834
g5
L144L
sg6
I01
sg7
L144L
sg8
F1332.18
sa(dp1835
g5
L145L
sg6
I01
sg7
L145L
sg8
F1333.14
sa(dp1836
g5
L146L
sg6
I01
sg7
L146L
sg8
F1332.4
sa(dp1837
g5
L147L
sg6
I01
sg7
L147L
sg8
F1332.15
sa(dp1838
g5
L148L
sg6
I01
sg7
L148L
sg8
F1331.65
sa(dp1839
g5
L149L
sg6
I01
sg7
L149L
sg8
F1331.54
sa(dp1840
g5
L150L
sg6
I01
sg7
L150L
sg8
F1331.08
sa(dp1841
g5
L151L
sg6
I01
sg7
L151L
sg8
F1329.87
sa(dp1842
g5
L152L
sg6
I01
sg7
L152L
sg8
F1329.52
sa(dp1843
g5
L153L
sg6
I01
sg7
L153L
sg8
F1330.23
sa(dp1844
g5
L154L
sg6
I01
sg7
L154L
sg8
F1329.96
sa(dp1845
g5
L155L
sg6
I01
sg7
L155L
sg8
F1329.45
sa(dp1846
g5
L156L
sg6
I01
sg7
L156L
sg8
F1328.46
sa(dp1847
g5
L157L
sg6
I01
sg7
L157L
sg8
F1328.85
sa(dp1848
g5
L158L
sg6
I01
sg7
L158L
sg8
F1327.39
sa(dp1849
g5
L159L
sg6
I01
sg7
L159L
sg8
F1326.15
sa(dp1850
g5
L160L
sg6
I01
sg7
L160L
sg8
F1326.26
sa(dp1851
g5
L161L
sg6
I01
sg7
L161L
sg8
F1325.51
sa(dp1852
g5
L162L
sg6
I01
sg7
L162L
sg8
F1325.53
sa(dp1853
g5
L163L
sg6
I01
sg7
L163L
sg8
F1325.32
sa(dp1854
g5
L164L
sg6
I01
sg7
L164L
sg8
F1325.27
sa(dp1855
g5
L165L
sg6
I01
sg7
L165L
sg8
F1324.08
sa(dp1856
g5
L166L
sg6
I01
sg7
L166L
sg8
F1323.12
sa(dp1857
g5
L167L
sg6
I01
sg7
L167L
sg8
F1323.08
sa(dp1858
g5
L168L
sg6
I01
sg7
L168L
sg8
F1323.11
sa(dp1859
g5
L169L
sg6
I01
sg7
L169L
sg8
F1321.29
sa(dp1860
g5
L170L
sg6
I01
sg7
L170L
sg8
F1315.52
sa(dp1861
g5
L171L
sg6
I01
sg7
L171L
sg8
F1311.73
sa(dp1862
g5
L172L
sg6
I01
sg7
L172L
sg8
F1313.47
sa(dp1863
g5
L173L
sg6
I01
sg7
L173L
sg8
F1313.42
sa(dp1864
g5
L174L
sg6
I01
sg7
L174L
sg8
F1311.01
sa(dp1865
g5
L175L
sg6
I01
sg7
L175L
sg8
F1304.99
sa(dp1866
g5
L176L
sg6
I01
sg7
L176L
sg8
F1312.24
sa(dp1867
g5
L177L
sg6
I01
sg7
L177L
sg8
F1309.34
sa(dp1868
g5
L178L
sg6
I01
sg7
L178L
sg8
F1309.22
sa(dp1869
g5
L179L
sg6
I01
sg7
L179L
sg8
F1309.82
sa(dp1870
g5
L180L
sg6
I01
sg7
L180L
sg8
F1309.74
sa(dp1871
g5
L181L
sg6
I01
sg7
L181L
sg8
F1308.85
sa(dp1872
g5
L182L
sg6
I01
sg7
L182L
sg8
F1306.76
sa(dp1873
g5
L183L
sg6
I01
sg7
L183L
sg8
F1308.19
sa(dp1874
g5
L184L
sg6
I01
sg7
L184L
sg8
F1304.54
sa(dp1875
g5
L185L
sg6
I01
sg7
L185L
sg8
F1302.81
sa(dp1876
g5
L186L
sg6
I01
sg7
L186L
sg8
F48.3554
sa(dp1877
g5
L187L
sg6
I01
sg7
L187L
sg8
F0.423494
sa(dp1878
g5
L188L
sg6
I01
sg7
L188L
sg8
F0.0
sa(dp1879
g5
L189L
sg6
I01
sg7
L189L
sg8
F993.355
sassg894
(lp1880
L325028L
as.