(dp0
L354826L
(dp1
S'lhc:beamenergy'
p2
(lp3
(dp4
S'lastlb'
p5
I1
sS'accepted'
p6
I01
sS'firstlb'
p7
I1
sS'value'
p8
S'6499.2'
p9
sa(dp10
g5
I1
sg6
I01
sg7
I2
sg8
S'6499.32'
p11
sa(dp12
g5
I1
sg6
I01
sg7
I2
sg8
S'6499.2'
p13
sa(dp14
g5
I1
sg6
I01
sg7
I2
sg8
S'6499.32'
p15
sa(dp16
g5
I1
sg6
I01
sg7
I2
sg8
S'6499.2'
p17
sa(dp18
g5
I1
sg6
I01
sg7
I2
sg8
S'6499.32'
p19
sa(dp20
g5
I1
sg6
I01
sg7
I2
sg8
S'6499.2'
p21
sa(dp22
g5
I1
sg6
I01
sg7
I2
sg8
S'6499.32'
p23
sa(dp24
g5
I1
sg6
I01
sg7
I2
sg8
S'6499.2'
p25
sa(dp26
g5
I1
sg6
I01
sg7
I2
sg8
S'6499.32'
p27
sa(dp28
g5
I1
sg6
I01
sg7
I2
sg8
S'6499.2'
p29
sa(dp30
g5
I1
sg6
I01
sg7
I2
sg8
S'6499.32'
p31
sa(dp32
g5
I1
sg6
I01
sg7
I2
sg8
S'6499.2'
p33
sa(dp34
g5
I1
sg6
I01
sg7
I2
sg8
S'6499.32'
p35
sa(dp36
g5
I1
sg6
I01
sg7
I2
sg8
S'6499.2'
p37
sa(dp38
g5
I1
sg6
I01
sg7
I2
sg8
S'6499.32'
p39
sa(dp40
g5
I1
sg6
I01
sg7
I2
sg8
S'6499.2'
p41
sa(dp42
g5
I2
sg6
I01
sg7
I2
sg8
S'6499.32'
p43
sa(dp44
g5
I2
sg6
I01
sg7
I3
sg8
S'6499.2'
p45
sa(dp46
g5
I2
sg6
I01
sg7
I3
sg8
S'6499.32'
p47
sa(dp48
g5
I2
sg6
I01
sg7
I3
sg8
S'6499.2'
p49
sa(dp50
g5
I2
sg6
I01
sg7
I3
sg8
S'6499.32'
p51
sa(dp52
g5
I2
sg6
I01
sg7
I3
sg8
S'6499.2'
p53
sa(dp54
g5
I2
sg6
I01
sg7
I3
sg8
S'6499.32'
p55
sa(dp56
g5
I2
sg6
I01
sg7
I3
sg8
S'6499.2'
p57
sa(dp58
g5
I2
sg6
I01
sg7
I3
sg8
S'6499.32'
p59
sa(dp60
g5
I2
sg6
I01
sg7
I3
sg8
S'6499.2'
p61
sa(dp62
g5
I2
sg6
I01
sg7
I3
sg8
S'6499.32'
p63
sa(dp64
g5
I2
sg6
I01
sg7
I3
sg8
S'6499.2'
p65
sa(dp66
g5
I3
sg6
I01
sg7
I3
sg8
S'6499.32'
p67
sa(dp68
g5
I3
sg6
I01
sg7
I4
sg8
S'6499.2'
p69
sa(dp70
g5
I3
sg6
I01
sg7
I4
sg8
S'6499.32'
p71
sa(dp72
g5
I3
sg6
I01
sg7
I4
sg8
S'6499.2'
p73
sa(dp74
g5
I3
sg6
I01
sg7
I4
sg8
S'6499.32'
p75
sa(dp76
g5
I3
sg6
I01
sg7
I4
sg8
S'6499.2'
p77
sa(dp78
g5
I3
sg6
I01
sg7
I4
sg8
S'6499.32'
p79
sa(dp80
g5
I3
sg6
I01
sg7
I4
sg8
S'6499.2'
p81
sa(dp82
g5
I3
sg6
I01
sg7
I4
sg8
S'6499.32'
p83
sa(dp84
g5
I3
sg6
I01
sg7
I4
sg8
S'6499.2'
p85
sa(dp86
g5
I3
sg6
I01
sg7
I4
sg8
S'6499.32'
p87
sa(dp88
g5
I3
sg6
I01
sg7
I4
sg8
S'6499.2'
p89
sa(dp90
g5
I3
sg6
I01
sg7
I4
sg8
S'6499.32'
p91
sa(dp92
g5
I4
sg6
I01
sg7
I4
sg8
S'6499.2'
p93
sa(dp94
g5
I4
sg6
I01
sg7
I5
sg8
S'6499.32'
p95
sa(dp96
g5
I4
sg6
I01
sg7
I5
sg8
S'6499.2'
p97
sa(dp98
g5
I4
sg6
I01
sg7
I5
sg8
S'6499.32'
p99
sa(dp100
g5
I4
sg6
I01
sg7
I5
sg8
S'6499.2'
p101
sa(dp102
g5
I4
sg6
I01
sg7
I5
sg8
S'6499.32'
p103
sa(dp104
g5
I5
sg6
I01
sg7
I5
sg8
S'6499.2'
p105
sa(dp106
g5
I5
sg6
I01
sg7
I6
sg8
S'6499.32'
p107
sa(dp108
g5
I5
sg6
I01
sg7
I6
sg8
S'6499.2'
p109
sa(dp110
g5
I5
sg6
I01
sg7
I6
sg8
S'6499.32'
p111
sa(dp112
g5
I6
sg6
I01
sg7
I6
sg8
S'6499.2'
p113
sa(dp114
g5
I6
sg6
I01
sg7
I7
sg8
S'6499.32'
p115
sa(dp116
g5
I6
sg6
I01
sg7
I7
sg8
S'6499.2'
p117
sa(dp118
g5
I6
sg6
I01
sg7
I7
sg8
S'6499.32'
p119
sa(dp120
g5
I6
sg6
I01
sg7
I7
sg8
S'6499.2'
p121
sa(dp122
g5
I6
sg6
I01
sg7
I7
sg8
S'6499.32'
p123
sa(dp124
g5
I6
sg6
I01
sg7
I7
sg8
S'6499.2'
p125
sa(dp126
g5
I6
sg6
I01
sg7
I7
sg8
S'6499.32'
p127
sa(dp128
g5
I6
sg6
I01
sg7
I7
sg8
S'6499.2'
p129
sa(dp130
g5
I6
sg6
I01
sg7
I7
sg8
S'6499.32'
p131
sa(dp132
g5
I7
sg6
I01
sg7
I7
sg8
S'6499.2'
p133
sa(dp134
g5
I7
sg6
I01
sg7
I8
sg8
S'6499.32'
p135
sa(dp136
g5
I7
sg6
I01
sg7
I8
sg8
S'6499.2'
p137
sa(dp138
g5
I7
sg6
I01
sg7
I8
sg8
S'6499.32'
p139
sa(dp140
g5
I7
sg6
I01
sg7
I8
sg8
S'6499.2'
p141
sa(dp142
g5
I8
sg6
I01
sg7
I8
sg8
S'6499.32'
p143
sa(dp144
g5
I8
sg6
I01
sg7
I9
sg8
S'6499.2'
p145
sa(dp146
g5
I8
sg6
I01
sg7
I9
sg8
S'6499.32'
p147
sa(dp148
g5
I8
sg6
I01
sg7
I9
sg8
S'6499.2'
p149
sa(dp150
g5
I8
sg6
I01
sg7
I9
sg8
S'6499.32'
p151
sa(dp152
g5
I8
sg6
I01
sg7
I9
sg8
S'6499.2'
p153
sa(dp154
g5
I8
sg6
I01
sg7
I9
sg8
S'6499.32'
p155
sa(dp156
g5
I8
sg6
I01
sg7
I9
sg8
S'6499.2'
p157
sa(dp158
g5
I8
sg6
I01
sg7
I9
sg8
S'6499.32'
p159
sa(dp160
g5
I9
sg6
I01
sg7
I9
sg8
S'6499.2'
p161
sa(dp162
g5
I9
sg6
I01
sg7
I10
sg8
S'6499.32'
p163
sa(dp164
g5
I9
sg6
I01
sg7
I10
sg8
S'6499.2'
p165
sa(dp166
g5
I9
sg6
I01
sg7
I10
sg8
S'6499.32'
p167
sa(dp168
g5
I9
sg6
I01
sg7
I10
sg8
S'6499.2'
p169
sa(dp170
g5
I9
sg6
I01
sg7
I10
sg8
S'6499.32'
p171
sa(dp172
g5
I9
sg6
I01
sg7
I10
sg8
S'6499.2'
p173
sa(dp174
g5
I9
sg6
I01
sg7
I10
sg8
S'6499.32'
p175
sa(dp176
g5
I9
sg6
I01
sg7
I10
sg8
S'6499.2'
p177
sa(dp178
g5
I9
sg6
I01
sg7
I10
sg8
S'6499.32'
p179
sa(dp180
g5
I9
sg6
I01
sg7
I10
sg8
S'6499.2'
p181
sa(dp182
g5
I9
sg6
I01
sg7
I10
sg8
S'6499.32'
p183
sa(dp184
g5
I9
sg6
I01
sg7
I10
sg8
S'6499.2'
p185
sa(dp186
g5
I9
sg6
I01
sg7
I10
sg8
S'6499.32'
p187
sa(dp188
g5
I9
sg6
I01
sg7
I10
sg8
S'6499.2'
p189
sa(dp190
g5
I9
sg6
I01
sg7
I10
sg8
S'6499.32'
p191
sa(dp192
g5
I9
sg6
I01
sg7
I10
sg8
S'6499.2'
p193
sa(dp194
g5
I9
sg6
I01
sg7
I10
sg8
S'6499.32'
p195
sa(dp196
g5
I9
sg6
I01
sg7
I10
sg8
S'6499.2'
p197
sa(dp198
g5
I9
sg6
I01
sg7
I10
sg8
S'6499.32'
p199
sa(dp200
g5
I9
sg6
I01
sg7
I10
sg8
S'6499.2'
p201
sa(dp202
g5
I9
sg6
I01
sg7
I10
sg8
S'6499.32'
p203
sa(dp204
g5
I9
sg6
I01
sg7
I10
sg8
S'6499.2'
p205
sa(dp206
g5
I9
sg6
I01
sg7
I10
sg8
S'6499.32'
p207
sa(dp208
g5
I10
sg6
I01
sg7
I10
sg8
S'6499.2'
p209
sa(dp210
g5
I10
sg6
I01
sg7
I11
sg8
S'6499.32'
p211
sa(dp212
g5
I10
sg6
I01
sg7
I11
sg8
S'6499.2'
p213
sa(dp214
g5
I10
sg6
I01
sg7
I11
sg8
S'6499.32'
p215
sa(dp216
g5
I10
sg6
I01
sg7
I11
sg8
S'6499.2'
p217
sa(dp218
g5
I10
sg6
I01
sg7
I11
sg8
S'6499.32'
p219
sa(dp220
g5
I10
sg6
I01
sg7
I11
sg8
S'6499.2'
p221
sa(dp222
g5
I11
sg6
I01
sg7
I11
sg8
S'6499.32'
p223
sa(dp224
g5
I11
sg6
I01
sg7
I12
sg8
S'6499.2'
p225
sa(dp226
g5
I11
sg6
I01
sg7
I12
sg8
S'6499.32'
p227
sa(dp228
g5
I11
sg6
I01
sg7
I12
sg8
S'6499.2'
p229
sa(dp230
g5
I11
sg6
I01
sg7
I12
sg8
S'6499.32'
p231
sa(dp232
g5
I11
sg6
I01
sg7
I12
sg8
S'6499.2'
p233
sa(dp234
g5
I11
sg6
I01
sg7
I12
sg8
S'6499.32'
p235
sa(dp236
g5
I11
sg6
I01
sg7
I12
sg8
S'6499.2'
p237
sa(dp238
g5
I11
sg6
I01
sg7
I12
sg8
S'6499.32'
p239
sa(dp240
g5
I11
sg6
I01
sg7
I12
sg8
S'6499.2'
p241
sa(dp242
g5
I11
sg6
I01
sg7
I12
sg8
S'6499.32'
p243
sa(dp244
g5
I11
sg6
I01
sg7
I12
sg8
S'6499.2'
p245
sa(dp246
g5
I11
sg6
I01
sg7
I12
sg8
S'6499.32'
p247
sa(dp248
g5
I11
sg6
I01
sg7
I12
sg8
S'6499.2'
p249
sa(dp250
g5
I11
sg6
I01
sg7
I12
sg8
S'6499.32'
p251
sa(dp252
g5
I11
sg6
I01
sg7
I12
sg8
S'6499.2'
p253
sa(dp254
g5
I11
sg6
I01
sg7
I12
sg8
S'6499.32'
p255
sa(dp256
g5
I11
sg6
I01
sg7
I12
sg8
S'6499.2'
p257
sa(dp258
g5
I11
sg6
I01
sg7
I12
sg8
S'6499.32'
p259
sa(dp260
g5
I11
sg6
I01
sg7
I12
sg8
S'6499.2'
p261
sa(dp262
g5
I11
sg6
I01
sg7
I12
sg8
S'6499.32'
p263
sa(dp264
g5
I11
sg6
I01
sg7
I12
sg8
S'6499.2'
p265
sa(dp266
g5
I11
sg6
I01
sg7
I12
sg8
S'6499.32'
p267
sa(dp268
g5
I11
sg6
I01
sg7
I12
sg8
S'6499.2'
p269
sa(dp270
g5
I11
sg6
I01
sg7
I12
sg8
S'6499.32'
p271
sa(dp272
g5
I12
sg6
I01
sg7
I12
sg8
S'6499.2'
p273
sa(dp274
g5
I12
sg6
I01
sg7
I13
sg8
S'6499.32'
p275
sa(dp276
g5
I12
sg6
I01
sg7
I13
sg8
S'6499.2'
p277
sa(dp278
g5
I12
sg6
I01
sg7
I13
sg8
S'6499.32'
p279
sa(dp280
g5
I12
sg6
I01
sg7
I13
sg8
S'6499.2'
p281
sa(dp282
g5
I12
sg6
I01
sg7
I13
sg8
S'6499.32'
p283
sa(dp284
g5
I12
sg6
I01
sg7
I13
sg8
S'6499.2'
p285
sa(dp286
g5
I12
sg6
I01
sg7
I13
sg8
S'6499.32'
p287
sa(dp288
g5
I12
sg6
I01
sg7
I13
sg8
S'6499.2'
p289
sa(dp290
g5
I12
sg6
I01
sg7
I13
sg8
S'6499.32'
p291
sa(dp292
g5
I12
sg6
I01
sg7
I13
sg8
S'6499.2'
p293
sa(dp294
g5
I12
sg6
I01
sg7
I13
sg8
S'6499.32'
p295
sa(dp296
g5
I12
sg6
I01
sg7
I13
sg8
S'6499.2'
p297
sa(dp298
g5
I12
sg6
I01
sg7
I13
sg8
S'6499.32'
p299
sa(dp300
g5
I13
sg6
I01
sg7
I13
sg8
S'6499.2'
p301
sa(dp302
g5
I13
sg6
I01
sg7
I14
sg8
S'6499.32'
p303
sa(dp304
g5
I13
sg6
I01
sg7
I14
sg8
S'6499.2'
p305
sa(dp306
g5
I13
sg6
I01
sg7
I14
sg8
S'6499.32'
p307
sa(dp308
g5
I13
sg6
I01
sg7
I14
sg8
S'6499.2'
p309
sa(dp310
g5
I13
sg6
I01
sg7
I14
sg8
S'6499.32'
p311
sa(dp312
g5
I13
sg6
I01
sg7
I14
sg8
S'6499.2'
p313
sa(dp314
g5
I13
sg6
I01
sg7
I14
sg8
S'6499.32'
p315
sa(dp316
g5
I13
sg6
I01
sg7
I14
sg8
S'6499.2'
p317
sa(dp318
g5
I13
sg6
I01
sg7
I14
sg8
S'6499.32'
p319
sa(dp320
g5
I14
sg6
I01
sg7
I14
sg8
S'6499.2'
p321
sa(dp322
g5
I14
sg6
I01
sg7
I15
sg8
S'6499.32'
p323
sa(dp324
g5
I14
sg6
I01
sg7
I15
sg8
S'6499.2'
p325
sa(dp326
g5
I14
sg6
I01
sg7
I15
sg8
S'6499.32'
p327
sa(dp328
g5
I14
sg6
I01
sg7
I15
sg8
S'6499.2'
p329
sa(dp330
g5
I14
sg6
I01
sg7
I15
sg8
S'6499.32'
p331
sa(dp332
g5
I14
sg6
I01
sg7
I15
sg8
S'6499.2'
p333
sa(dp334
g5
I14
sg6
I01
sg7
I15
sg8
S'6499.32'
p335
sa(dp336
g5
I14
sg6
I01
sg7
I15
sg8
S'6499.2'
p337
sa(dp338
g5
I14
sg6
I01
sg7
I15
sg8
S'6499.32'
p339
sa(dp340
g5
I14
sg6
I01
sg7
I15
sg8
S'6499.2'
p341
sa(dp342
g5
I14
sg6
I01
sg7
I15
sg8
S'6499.32'
p343
sa(dp344
g5
I14
sg6
I01
sg7
I15
sg8
S'6499.2'
p345
sa(dp346
g5
I14
sg6
I01
sg7
I15
sg8
S'6499.32'
p347
sa(dp348
g5
I14
sg6
I01
sg7
I15
sg8
S'6499.2'
p349
sa(dp350
g5
I14
sg6
I01
sg7
I15
sg8
S'6499.32'
p351
sa(dp352
g5
I14
sg6
I01
sg7
I15
sg8
S'6499.2'
p353
sa(dp354
g5
I14
sg6
I01
sg7
I15
sg8
S'6499.32'
p355
sa(dp356
g5
I14
sg6
I01
sg7
I15
sg8
S'6499.2'
p357
sa(dp358
g5
I14
sg6
I01
sg7
I15
sg8
S'6499.32'
p359
sa(dp360
g5
I14
sg6
I01
sg7
I15
sg8
S'6499.2'
p361
sa(dp362
g5
I14
sg6
I01
sg7
I15
sg8
S'6499.32'
p363
sa(dp364
g5
I14
sg6
I01
sg7
I15
sg8
S'6499.2'
p365
sa(dp366
g5
I14
sg6
I01
sg7
I15
sg8
S'6499.32'
p367
sa(dp368
g5
I15
sg6
I01
sg7
I15
sg8
S'6499.2'
p369
sa(dp370
g5
I15
sg6
I01
sg7
I16
sg8
S'6499.32'
p371
sa(dp372
g5
I15
sg6
I01
sg7
I16
sg8
S'6499.2'
p373
sa(dp374
g5
I15
sg6
I01
sg7
I16
sg8
S'6499.32'
p375
sa(dp376
g5
I15
sg6
I01
sg7
I16
sg8
S'6499.2'
p377
sa(dp378
g5
I15
sg6
I01
sg7
I16
sg8
S'6499.32'
p379
sa(dp380
g5
I15
sg6
I01
sg7
I16
sg8
S'6499.2'
p381
sa(dp382
g5
I15
sg6
I01
sg7
I16
sg8
S'6499.32'
p383
sa(dp384
g5
I15
sg6
I01
sg7
I16
sg8
S'6499.2'
p385
sa(dp386
g5
I15
sg6
I01
sg7
I16
sg8
S'6499.32'
p387
sa(dp388
g5
I16
sg6
I01
sg7
I16
sg8
S'6499.2'
p389
sa(dp390
g5
I16
sg6
I01
sg7
I17
sg8
S'6499.32'
p391
sa(dp392
g5
I16
sg6
I01
sg7
I17
sg8
S'6499.2'
p393
sa(dp394
g5
I16
sg6
I01
sg7
I17
sg8
S'6499.32'
p395
sa(dp396
g5
I17
sg6
I01
sg7
I17
sg8
S'6499.2'
p397
sa(dp398
g5
I17
sg6
I01
sg7
I18
sg8
S'6499.32'
p399
sa(dp400
g5
I17
sg6
I01
sg7
I18
sg8
S'6499.2'
p401
sa(dp402
g5
I17
sg6
I01
sg7
I18
sg8
S'6499.32'
p403
sa(dp404
g5
I17
sg6
I01
sg7
I18
sg8
S'6499.2'
p405
sa(dp406
g5
I17
sg6
I01
sg7
I18
sg8
S'6499.32'
p407
sa(dp408
g5
I17
sg6
I01
sg7
I18
sg8
S'6499.2'
p409
sa(dp410
g5
I17
sg6
I01
sg7
I18
sg8
S'6499.32'
p411
sa(dp412
g5
I17
sg6
I01
sg7
I18
sg8
S'6499.2'
p413
sa(dp414
g5
I17
sg6
I01
sg7
I18
sg8
S'6499.32'
p415
sa(dp416
g5
I17
sg6
I01
sg7
I18
sg8
S'6499.2'
p417
sa(dp418
g5
I17
sg6
I01
sg7
I18
sg8
S'6499.32'
p419
sa(dp420
g5
I17
sg6
I01
sg7
I18
sg8
S'6499.2'
p421
sa(dp422
g5
I17
sg6
I01
sg7
I18
sg8
S'6499.32'
p423
sa(dp424
g5
I17
sg6
I01
sg7
I18
sg8
S'6499.2'
p425
sa(dp426
g5
I17
sg6
I01
sg7
I18
sg8
S'6499.32'
p427
sa(dp428
g5
I17
sg6
I01
sg7
I18
sg8
S'6499.2'
p429
sa(dp430
g5
I17
sg6
I01
sg7
I18
sg8
S'6499.32'
p431
sa(dp432
g5
I17
sg6
I01
sg7
I18
sg8
S'6499.2'
p433
sa(dp434
g5
I17
sg6
I01
sg7
I18
sg8
S'6499.32'
p435
sa(dp436
g5
I17
sg6
I01
sg7
I18
sg8
S'6499.2'
p437
sa(dp438
g5
I17
sg6
I01
sg7
I18
sg8
S'6499.32'
p439
sa(dp440
g5
I18
sg6
I01
sg7
I18
sg8
S'6499.2'
p441
sa(dp442
g5
I18
sg6
I01
sg7
I19
sg8
S'6499.32'
p443
sa(dp444
g5
I18
sg6
I01
sg7
I19
sg8
S'6499.2'
p445
sa(dp446
g5
I18
sg6
I01
sg7
I19
sg8
S'6499.32'
p447
sa(dp448
g5
I18
sg6
I01
sg7
I19
sg8
S'6499.2'
p449
sa(dp450
g5
I18
sg6
I01
sg7
I19
sg8
S'6499.32'
p451
sa(dp452
g5
I18
sg6
I01
sg7
I19
sg8
S'6499.2'
p453
sa(dp454
g5
I18
sg6
I01
sg7
I19
sg8
S'6499.32'
p455
sa(dp456
g5
I18
sg6
I01
sg7
I19
sg8
S'6499.2'
p457
sa(dp458
g5
I18
sg6
I01
sg7
I19
sg8
S'6499.32'
p459
sa(dp460
g5
I18
sg6
I01
sg7
I19
sg8
S'6499.2'
p461
sa(dp462
g5
I18
sg6
I01
sg7
I19
sg8
S'6499.32'
p463
sa(dp464
g5
I18
sg6
I01
sg7
I19
sg8
S'6499.2'
p465
sa(dp466
g5
I18
sg6
I01
sg7
I19
sg8
S'6499.32'
p467
sa(dp468
g5
I18
sg6
I01
sg7
I19
sg8
S'6499.2'
p469
sa(dp470
g5
I18
sg6
I01
sg7
I19
sg8
S'6499.32'
p471
sa(dp472
g5
I18
sg6
I01
sg7
I19
sg8
S'6499.2'
p473
sa(dp474
g5
I18
sg6
I01
sg7
I19
sg8
S'6499.32'
p475
sa(dp476
g5
I18
sg6
I01
sg7
I19
sg8
S'6499.2'
p477
sa(dp478
g5
I18
sg6
I01
sg7
I19
sg8
S'6499.32'
p479
sa(dp480
g5
I18
sg6
I01
sg7
I19
sg8
S'6499.2'
p481
sa(dp482
g5
I18
sg6
I01
sg7
I19
sg8
S'6499.32'
p483
sa(dp484
g5
I19
sg6
I01
sg7
I19
sg8
S'6499.2'
p485
sa(dp486
g5
I19
sg6
I01
sg7
I20
sg8
S'6499.32'
p487
sa(dp488
g5
I19
sg6
I01
sg7
I20
sg8
S'6499.2'
p489
sa(dp490
g5
I19
sg6
I01
sg7
I20
sg8
S'6499.32'
p491
sa(dp492
g5
I19
sg6
I01
sg7
I20
sg8
S'6499.2'
p493
sa(dp494
g5
I19
sg6
I01
sg7
I20
sg8
S'6499.32'
p495
sa(dp496
g5
I19
sg6
I01
sg7
I20
sg8
S'6499.08'
p497
sa(dp498
g5
I19
sg6
I01
sg7
I20
sg8
S'6499.2'
p499
sa(dp500
g5
I19
sg6
I01
sg7
I20
sg8
S'6499.32'
p501
sa(dp502
g5
I19
sg6
I01
sg7
I20
sg8
S'6499.2'
p503
sa(dp504
g5
I19
sg6
I01
sg7
I20
sg8
S'6499.32'
p505
sa(dp506
g5
I19
sg6
I01
sg7
I20
sg8
S'6499.2'
p507
sa(dp508
g5
I19
sg6
I01
sg7
I20
sg8
S'6499.32'
p509
sa(dp510
g5
I19
sg6
I01
sg7
I20
sg8
S'6499.2'
p511
sa(dp512
g5
I19
sg6
I01
sg7
I20
sg8
S'6499.32'
p513
sa(dp514
g5
I19
sg6
I01
sg7
I20
sg8
S'6499.2'
p515
sa(dp516
g5
I19
sg6
I01
sg7
I20
sg8
S'6499.32'
p517
sa(dp518
g5
I19
sg6
I01
sg7
I20
sg8
S'6499.2'
p519
sa(dp520
g5
I19
sg6
I01
sg7
I20
sg8
S'6499.32'
p521
sa(dp522
g5
I19
sg6
I01
sg7
I20
sg8
S'6499.2'
p523
sa(dp524
g5
I19
sg6
I01
sg7
I20
sg8
S'6499.08'
p525
sa(dp526
g5
I20
sg6
I01
sg7
I20
sg8
S'6499.2'
p527
sa(dp528
g5
I20
sg6
I01
sg7
I21
sg8
S'6499.32'
p529
sa(dp530
g5
I20
sg6
I01
sg7
I21
sg8
S'6499.2'
p531
sa(dp532
g5
I20
sg6
I01
sg7
I21
sg8
S'6499.32'
p533
sa(dp534
g5
I20
sg6
I01
sg7
I21
sg8
S'6499.2'
p535
sa(dp536
g5
I20
sg6
I01
sg7
I21
sg8
S'6499.32'
p537
sa(dp538
g5
I20
sg6
I01
sg7
I21
sg8
S'6499.2'
p539
sa(dp540
g5
I20
sg6
I01
sg7
I21
sg8
S'6499.32'
p541
sa(dp542
g5
I20
sg6
I01
sg7
I21
sg8
S'6499.2'
p543
sa(dp544
g5
I20
sg6
I01
sg7
I21
sg8
S'6499.32'
p545
sa(dp546
g5
I20
sg6
I01
sg7
I21
sg8
S'6499.2'
p547
sa(dp548
g5
I20
sg6
I01
sg7
I21
sg8
S'6499.32'
p549
sa(dp550
g5
I20
sg6
I01
sg7
I21
sg8
S'6499.2'
p551
sa(dp552
g5
I20
sg6
I01
sg7
I21
sg8
S'6499.32'
p553
sa(dp554
g5
I20
sg6
I01
sg7
I21
sg8
S'6499.2'
p555
sa(dp556
g5
I20
sg6
I01
sg7
I21
sg8
S'6499.32'
p557
sa(dp558
g5
I21
sg6
I01
sg7
I21
sg8
S'6499.2'
p559
sa(dp560
g5
I21
sg6
I01
sg7
I22
sg8
S'6499.08'
p561
sa(dp562
g5
I21
sg6
I01
sg7
I22
sg8
S'6499.32'
p563
sa(dp564
g5
I21
sg6
I01
sg7
I22
sg8
S'6499.2'
p565
sa(dp566
g5
I21
sg6
I01
sg7
I22
sg8
S'6499.32'
p567
sa(dp568
g5
I21
sg6
I01
sg7
I22
sg8
S'6499.2'
p569
sa(dp570
g5
I21
sg6
I01
sg7
I22
sg8
S'6499.08'
p571
sa(dp572
g5
I21
sg6
I01
sg7
I22
sg8
S'6499.2'
p573
sa(dp574
g5
I21
sg6
I01
sg7
I22
sg8
S'6499.32'
p575
sa(dp576
g5
I21
sg6
I01
sg7
I22
sg8
S'6499.2'
p577
sa(dp578
g5
I21
sg6
I01
sg7
I22
sg8
S'6499.32'
p579
sa(dp580
g5
I21
sg6
I01
sg7
I22
sg8
S'6499.2'
p581
sa(dp582
g5
I21
sg6
I01
sg7
I22
sg8
S'6499.32'
p583
sa(dp584
g5
I21
sg6
I01
sg7
I22
sg8
S'6499.2'
p585
sa(dp586
g5
I21
sg6
I01
sg7
I22
sg8
S'6499.32'
p587
sa(dp588
g5
I21
sg6
I01
sg7
I22
sg8
S'6499.2'
p589
sa(dp590
g5
I21
sg6
I01
sg7
I22
sg8
S'6499.32'
p591
sa(dp592
g5
I21
sg6
I01
sg7
I22
sg8
S'6499.2'
p593
sa(dp594
g5
I21
sg6
I01
sg7
I22
sg8
S'6499.32'
p595
sa(dp596
g5
I21
sg6
I01
sg7
I22
sg8
S'6499.2'
p597
sa(dp598
g5
I21
sg6
I01
sg7
I22
sg8
S'6499.32'
p599
sa(dp600
g5
I21
sg6
I01
sg7
I22
sg8
S'6499.2'
p601
sa(dp602
g5
I22
sg6
I01
sg7
I22
sg8
S'6499.32'
p603
sa(dp604
g5
I22
sg6
I01
sg7
I23
sg8
S'6499.2'
p605
sa(dp606
g5
I22
sg6
I01
sg7
I23
sg8
S'6499.32'
p607
sa(dp608
g5
I22
sg6
I01
sg7
I23
sg8
S'6499.2'
p609
sa(dp610
g5
I22
sg6
I01
sg7
I23
sg8
S'6499.32'
p611
sa(dp612
g5
I22
sg6
I01
sg7
I23
sg8
S'6499.2'
p613
sa(dp614
g5
I22
sg6
I01
sg7
I23
sg8
S'6499.32'
p615
sa(dp616
g5
I22
sg6
I01
sg7
I23
sg8
S'6499.2'
p617
sa(dp618
g5
I22
sg6
I01
sg7
I23
sg8
S'6499.32'
p619
sa(dp620
g5
I22
sg6
I01
sg7
I23
sg8
S'6499.2'
p621
sa(dp622
g5
I22
sg6
I01
sg7
I23
sg8
S'6499.32'
p623
sa(dp624
g5
I22
sg6
I01
sg7
I23
sg8
S'6499.2'
p625
sa(dp626
g5
I22
sg6
I01
sg7
I23
sg8
S'6499.32'
p627
sa(dp628
g5
I22
sg6
I01
sg7
I23
sg8
S'6499.2'
p629
sa(dp630
g5
I22
sg6
I01
sg7
I23
sg8
S'6499.32'
p631
sa(dp632
g5
I23
sg6
I01
sg7
I23
sg8
S'6499.2'
p633
sa(dp634
g5
I23
sg6
I01
sg7
I24
sg8
S'6499.32'
p635
sa(dp636
g5
I23
sg6
I01
sg7
I24
sg8
S'6499.2'
p637
sa(dp638
g5
I23
sg6
I01
sg7
I24
sg8
S'6499.32'
p639
sa(dp640
g5
I24
sg6
I01
sg7
I24
sg8
S'6499.2'
p641
sa(dp642
g5
I24
sg6
I01
sg7
I25
sg8
S'6499.32'
p643
sa(dp644
g5
I24
sg6
I01
sg7
I25
sg8
S'6499.2'
p645
sa(dp646
g5
I24
sg6
I01
sg7
I25
sg8
S'6499.32'
p647
sa(dp648
g5
I24
sg6
I01
sg7
I25
sg8
S'6499.2'
p649
sa(dp650
g5
I24
sg6
I01
sg7
I25
sg8
S'6499.32'
p651
sa(dp652
g5
I24
sg6
I01
sg7
I25
sg8
S'6499.2'
p653
sa(dp654
g5
I24
sg6
I01
sg7
I25
sg8
S'6499.32'
p655
sa(dp656
g5
I24
sg6
I01
sg7
I25
sg8
S'6499.2'
p657
sa(dp658
g5
I24
sg6
I01
sg7
I25
sg8
S'6499.32'
p659
sa(dp660
g5
I24
sg6
I01
sg7
I25
sg8
S'6499.2'
p661
sa(dp662
g5
I24
sg6
I01
sg7
I25
sg8
S'6499.32'
p663
sa(dp664
g5
I24
sg6
I01
sg7
I25
sg8
S'6499.2'
p665
sa(dp666
g5
I24
sg6
I01
sg7
I25
sg8
S'6499.32'
p667
sa(dp668
g5
I24
sg6
I01
sg7
I25
sg8
S'6499.2'
p669
sa(dp670
g5
I24
sg6
I01
sg7
I25
sg8
S'6499.32'
p671
sa(dp672
g5
I24
sg6
I01
sg7
I25
sg8
S'6499.2'
p673
sa(dp674
g5
I24
sg6
I01
sg7
I25
sg8
S'6499.32'
p675
sa(dp676
g5
I25
sg6
I01
sg7
I25
sg8
S'6499.2'
p677
sa(dp678
g5
I25
sg6
I01
sg7
I26
sg8
S'6499.32'
p679
sa(dp680
g5
I25
sg6
I01
sg7
I26
sg8
S'6499.2'
p681
sa(dp682
g5
I25
sg6
I01
sg7
I26
sg8
S'6499.32'
p683
sa(dp684
g5
I25
sg6
I01
sg7
I26
sg8
S'6499.2'
p685
sa(dp686
g5
I25
sg6
I01
sg7
I26
sg8
S'6499.32'
p687
sa(dp688
g5
I25
sg6
I01
sg7
I26
sg8
S'6499.2'
p689
sa(dp690
g5
I25
sg6
I01
sg7
I26
sg8
S'6499.32'
p691
sa(dp692
g5
I25
sg6
I01
sg7
I26
sg8
S'6499.2'
p693
sa(dp694
g5
I25
sg6
I01
sg7
I26
sg8
S'6499.32'
p695
sa(dp696
g5
I25
sg6
I01
sg7
I26
sg8
S'6499.2'
p697
sa(dp698
g5
I25
sg6
I01
sg7
I26
sg8
S'6499.32'
p699
sa(dp700
g5
I25
sg6
I01
sg7
I26
sg8
S'6499.2'
p701
sa(dp702
g5
I25
sg6
I01
sg7
I26
sg8
S'6499.32'
p703
sa(dp704
g5
I25
sg6
I01
sg7
I26
sg8
S'6499.2'
p705
sa(dp706
g5
I25
sg6
I01
sg7
I26
sg8
S'6499.32'
p707
sa(dp708
g5
I25
sg6
I01
sg7
I26
sg8
S'6499.2'
p709
sa(dp710
g5
I25
sg6
I01
sg7
I26
sg8
S'6499.32'
p711
sa(dp712
g5
I25
sg6
I01
sg7
I26
sg8
S'6499.2'
p713
sa(dp714
g5
I25
sg6
I01
sg7
I26
sg8
S'6499.32'
p715
sa(dp716
g5
I25
sg6
I01
sg7
I26
sg8
S'6499.2'
p717
sa(dp718
g5
I25
sg6
I01
sg7
I26
sg8
S'6499.32'
p719
sa(dp720
g5
I25
sg6
I01
sg7
I26
sg8
S'6499.2'
p721
sa(dp722
g5
I25
sg6
I01
sg7
I26
sg8
S'6499.32'
p723
sa(dp724
g5
I25
sg6
I01
sg7
I26
sg8
S'6499.2'
p725
sa(dp726
g5
I25
sg6
I01
sg7
I26
sg8
S'6499.32'
p727
sa(dp728
g5
I25
sg6
I01
sg7
I26
sg8
S'6499.2'
p729
sa(dp730
g5
I25
sg6
I01
sg7
I26
sg8
S'6499.32'
p731
sa(dp732
g5
I26
sg6
I01
sg7
I26
sg8
S'6499.2'
p733
sa(dp734
g5
I26
sg6
I01
sg7
I27
sg8
S'6499.32'
p735
sa(dp736
g5
I26
sg6
I01
sg7
I27
sg8
S'6499.2'
p737
sa(dp738
g5
I26
sg6
I01
sg7
I27
sg8
S'6499.32'
p739
sa(dp740
g5
I26
sg6
I01
sg7
I27
sg8
S'6499.2'
p741
sa(dp742
g5
I26
sg6
I01
sg7
I27
sg8
S'6499.32'
p743
sa(dp744
g5
I26
sg6
I01
sg7
I27
sg8
S'6499.2'
p745
sa(dp746
g5
I26
sg6
I01
sg7
I27
sg8
S'6499.32'
p747
sa(dp748
g5
I26
sg6
I01
sg7
I27
sg8
S'6499.2'
p749
sa(dp750
g5
I26
sg6
I01
sg7
I27
sg8
S'6499.32'
p751
sa(dp752
g5
I26
sg6
I01
sg7
I27
sg8
S'6499.2'
p753
sa(dp754
g5
I26
sg6
I01
sg7
I27
sg8
S'6499.32'
p755
sa(dp756
g5
I26
sg6
I01
sg7
I27
sg8
S'6499.2'
p757
sa(dp758
g5
I26
sg6
I01
sg7
I27
sg8
S'6499.32'
p759
sa(dp760
g5
I26
sg6
I01
sg7
I27
sg8
S'6499.2'
p761
sa(dp762
g5
I26
sg6
I01
sg7
I27
sg8
S'6499.32'
p763
sa(dp764
g5
I27
sg6
I01
sg7
I27
sg8
S'6499.2'
p765
sa(dp766
g5
I27
sg6
I01
sg7
I28
sg8
S'6499.32'
p767
sa(dp768
g5
I27
sg6
I01
sg7
I28
sg8
S'6499.2'
p769
sa(dp770
g5
I27
sg6
I01
sg7
I28
sg8
S'6499.32'
p771
sa(dp772
g5
I27
sg6
I01
sg7
I28
sg8
S'6499.2'
p773
sa(dp774
g5
I27
sg6
I01
sg7
I28
sg8
S'6499.32'
p775
sa(dp776
g5
I27
sg6
I01
sg7
I28
sg8
S'6499.2'
p777
sa(dp778
g5
I27
sg6
I01
sg7
I28
sg8
S'6499.32'
p779
sa(dp780
g5
I27
sg6
I01
sg7
I28
sg8
S'6499.2'
p781
sa(dp782
g5
I27
sg6
I01
sg7
I28
sg8
S'6499.32'
p783
sa(dp784
g5
I27
sg6
I01
sg7
I28
sg8
S'6499.2'
p785
sa(dp786
g5
I27
sg6
I01
sg7
I28
sg8
S'6499.32'
p787
sa(dp788
g5
I27
sg6
I01
sg7
I28
sg8
S'6499.2'
p789
sa(dp790
g5
I27
sg6
I01
sg7
I28
sg8
S'6499.32'
p791
sa(dp792
g5
I27
sg6
I01
sg7
I28
sg8
S'6499.2'
p793
sa(dp794
g5
I27
sg6
I01
sg7
I28
sg8
S'6499.32'
p795
sa(dp796
g5
I28
sg6
I01
sg7
I28
sg8
S'6499.2'
p797
sa(dp798
g5
I28
sg6
I01
sg7
I29
sg8
S'6499.32'
p799
sa(dp800
g5
I28
sg6
I01
sg7
I29
sg8
S'6499.2'
p801
sa(dp802
g5
I28
sg6
I01
sg7
I29
sg8
S'6499.32'
p803
sa(dp804
g5
I28
sg6
I01
sg7
I29
sg8
S'6499.2'
p805
sa(dp806
g5
I28
sg6
I01
sg7
I29
sg8
S'6499.32'
p807
sa(dp808
g5
I28
sg6
I01
sg7
I29
sg8
S'6499.2'
p809
sa(dp810
g5
I28
sg6
I01
sg7
I29
sg8
S'6499.32'
p811
sa(dp812
g5
I28
sg6
I01
sg7
I29
sg8
S'6499.2'
p813
sa(dp814
g5
I28
sg6
I01
sg7
I29
sg8
S'6499.32'
p815
sa(dp816
g5
I28
sg6
I01
sg7
I29
sg8
S'6499.2'
p817
sa(dp818
g5
I28
sg6
I01
sg7
I29
sg8
S'6499.32'
p819
sa(dp820
g5
I28
sg6
I01
sg7
I29
sg8
S'6499.2'
p821
sa(dp822
g5
I28
sg6
I01
sg7
I29
sg8
S'6499.32'
p823
sa(dp824
g5
I28
sg6
I01
sg7
I29
sg8
S'6499.2'
p825
sa(dp826
g5
I28
sg6
I01
sg7
I29
sg8
S'6499.32'
p827
sa(dp828
g5
I28
sg6
I01
sg7
I29
sg8
S'6499.2'
p829
sa(dp830
g5
I28
sg6
I01
sg7
I29
sg8
S'6499.32'
p831
sa(dp832
g5
I28
sg6
I01
sg7
I29
sg8
S'6499.2'
p833
sa(dp834
g5
I28
sg6
I01
sg7
I29
sg8
S'6499.32'
p835
sa(dp836
g5
I28
sg6
I01
sg7
I29
sg8
S'6499.2'
p837
sa(dp838
g5
I28
sg6
I01
sg7
I29
sg8
S'6499.32'
p839
sa(dp840
g5
I28
sg6
I01
sg7
I29
sg8
S'6499.2'
p841
sa(dp842
g5
I28
sg6
I01
sg7
I29
sg8
S'6499.32'
p843
sa(dp844
g5
I28
sg6
I01
sg7
I29
sg8
S'6499.2'
p845
sa(dp846
g5
I28
sg6
I01
sg7
I29
sg8
S'6499.32'
p847
sa(dp848
g5
I29
sg6
I01
sg7
I29
sg8
S'6499.2'
p849
sa(dp850
g5
I29
sg6
I01
sg7
I30
sg8
S'6499.32'
p851
sa(dp852
g5
I29
sg6
I01
sg7
I30
sg8
S'6499.2'
p853
sa(dp854
g5
I29
sg6
I01
sg7
I30
sg8
S'6499.32'
p855
sa(dp856
g5
I29
sg6
I01
sg7
I30
sg8
S'6499.2'
p857
sa(dp858
g5
I29
sg6
I01
sg7
I30
sg8
S'6499.32'
p859
sa(dp860
g5
I29
sg6
I01
sg7
I30
sg8
S'6499.2'
p861
sa(dp862
g5
I29
sg6
I01
sg7
I30
sg8
S'6499.32'
p863
sa(dp864
g5
I31
sg6
I01
sg7
I30
sg8
S'6499.2'
p865
sa(dp866
g5
I31
sg6
I01
sg7
I32
sg8
S'6499.32'
p867
sa(dp868
g5
I32
sg6
I01
sg7
I32
sg8
S'6499.2'
p869
sa(dp870
g5
I32
sg6
I01
sg7
I33
sg8
S'6499.32'
p871
sa(dp872
g5
I32
sg6
I01
sg7
I33
sg8
S'6499.2'
p873
sa(dp874
g5
I32
sg6
I01
sg7
I33
sg8
S'6499.32'
p875
sa(dp876
g5
I32
sg6
I01
sg7
I33
sg8
S'6499.2'
p877
sa(dp878
g5
I32
sg6
I01
sg7
I33
sg8
S'6499.32'
p879
sa(dp880
g5
I32
sg6
I01
sg7
I33
sg8
S'6499.2'
p881
sa(dp882
g5
I32
sg6
I01
sg7
I33
sg8
S'6499.32'
p883
sa(dp884
g5
I32
sg6
I01
sg7
I33
sg8
S'6499.2'
p885
sa(dp886
g5
I32
sg6
I01
sg7
I33
sg8
S'6499.32'
p887
sa(dp888
g5
I32
sg6
I01
sg7
I33
sg8
S'6499.2'
p889
sa(dp890
g5
I32
sg6
I01
sg7
I33
sg8
S'6499.08'
p891
sa(dp892
g5
I32
sg6
I01
sg7
I33
sg8
S'6499.2'
p893
sa(dp894
g5
I32
sg6
I01
sg7
I33
sg8
S'6499.32'
p895
sa(dp896
g5
I33
sg6
I01
sg7
I33
sg8
S'6499.2'
p897
sa(dp898
g5
I33
sg6
I01
sg7
I34
sg8
S'6499.32'
p899
sa(dp900
g5
I33
sg6
I01
sg7
I34
sg8
S'6499.2'
p901
sa(dp902
g5
I33
sg6
I01
sg7
I34
sg8
S'6499.32'
p903
sa(dp904
g5
I33
sg6
I01
sg7
I34
sg8
S'6499.2'
p905
sa(dp906
g5
I33
sg6
I01
sg7
I34
sg8
S'6499.08'
p907
sa(dp908
g5
I33
sg6
I01
sg7
I34
sg8
S'6499.2'
p909
sa(dp910
g5
I33
sg6
I01
sg7
I34
sg8
S'6499.32'
p911
sa(dp912
g5
I33
sg6
I01
sg7
I34
sg8
S'6499.2'
p913
sa(dp914
g5
I33
sg6
I01
sg7
I34
sg8
S'6499.32'
p915
sa(dp916
g5
I33
sg6
I01
sg7
I34
sg8
S'6499.2'
p917
sa(dp918
g5
I33
sg6
I01
sg7
I34
sg8
S'6499.32'
p919
sa(dp920
g5
I33
sg6
I01
sg7
I34
sg8
S'6499.2'
p921
sa(dp922
g5
I33
sg6
I01
sg7
I34
sg8
S'6499.32'
p923
sa(dp924
g5
I33
sg6
I01
sg7
I34
sg8
S'6499.2'
p925
sa(dp926
g5
I33
sg6
I01
sg7
I34
sg8
S'6499.32'
p927
sa(dp928
g5
I33
sg6
I01
sg7
I34
sg8
S'6499.2'
p929
sa(dp930
g5
I33
sg6
I01
sg7
I34
sg8
S'6499.32'
p931
sa(dp932
g5
I34
sg6
I01
sg7
I34
sg8
S'6499.2'
p933
sa(dp934
g5
I34
sg6
I01
sg7
I35
sg8
S'6499.32'
p935
sa(dp936
g5
I34
sg6
I01
sg7
I35
sg8
S'6499.2'
p937
sa(dp938
g5
I34
sg6
I01
sg7
I35
sg8
S'6499.32'
p939
sa(dp940
g5
I34
sg6
I01
sg7
I35
sg8
S'6499.2'
p941
sa(dp942
g5
I34
sg6
I01
sg7
I35
sg8
S'6499.32'
p943
sa(dp944
g5
I34
sg6
I01
sg7
I35
sg8
S'6499.2'
p945
sa(dp946
g5
I34
sg6
I01
sg7
I35
sg8
S'6499.32'
p947
sa(dp948
g5
I34
sg6
I01
sg7
I35
sg8
S'6499.2'
p949
sa(dp950
g5
I34
sg6
I01
sg7
I35
sg8
S'6499.32'
p951
sa(dp952
g5
I34
sg6
I01
sg7
I35
sg8
S'6499.2'
p953
sa(dp954
g5
I34
sg6
I01
sg7
I35
sg8
S'6499.32'
p955
sa(dp956
g5
I34
sg6
I01
sg7
I35
sg8
S'6499.2'
p957
sa(dp958
g5
I34
sg6
I01
sg7
I35
sg8
S'6499.32'
p959
sa(dp960
g5
I34
sg6
I01
sg7
I35
sg8
S'6499.2'
p961
sa(dp962
g5
I34
sg6
I01
sg7
I35
sg8
S'6499.32'
p963
sa(dp964
g5
I34
sg6
I01
sg7
I35
sg8
S'6499.2'
p965
sa(dp966
g5
I34
sg6
I01
sg7
I35
sg8
S'6499.32'
p967
sa(dp968
g5
I34
sg6
I01
sg7
I35
sg8
S'6499.2'
p969
sa(dp970
g5
I34
sg6
I01
sg7
I35
sg8
S'6499.32'
p971
sa(dp972
g5
I34
sg6
I01
sg7
I35
sg8
S'6499.2'
p973
sa(dp974
g5
I34
sg6
I01
sg7
I35
sg8
S'6499.32'
p975
sa(dp976
g5
I34
sg6
I01
sg7
I35
sg8
S'6499.2'
p977
sa(dp978
g5
I34
sg6
I01
sg7
I35
sg8
S'6499.32'
p979
sa(dp980
g5
I34
sg6
I01
sg7
I35
sg8
S'6499.2'
p981
sa(dp982
g5
I34
sg6
I01
sg7
I35
sg8
S'6499.32'
p983
sa(dp984
g5
I35
sg6
I01
sg7
I35
sg8
S'6499.2'
p985
sa(dp986
g5
I35
sg6
I01
sg7
I36
sg8
S'6499.32'
p987
sa(dp988
g5
I35
sg6
I01
sg7
I36
sg8
S'6499.2'
p989
sa(dp990
g5
I35
sg6
I01
sg7
I36
sg8
S'6499.32'
p991
sa(dp992
g5
I35
sg6
I01
sg7
I36
sg8
S'6499.2'
p993
sa(dp994
g5
I35
sg6
I01
sg7
I36
sg8
S'6499.32'
p995
sa(dp996
g5
I35
sg6
I01
sg7
I36
sg8
S'6499.2'
p997
sa(dp998
g5
I35
sg6
I01
sg7
I36
sg8
S'6499.32'
p999
sa(dp1000
g5
I35
sg6
I01
sg7
I36
sg8
S'6499.2'
p1001
sa(dp1002
g5
I35
sg6
I01
sg7
I36
sg8
S'6499.32'
p1003
sa(dp1004
g5
I35
sg6
I01
sg7
I36
sg8
S'6499.2'
p1005
sa(dp1006
g5
I35
sg6
I01
sg7
I36
sg8
S'6499.32'
p1007
sa(dp1008
g5
I35
sg6
I01
sg7
I36
sg8
S'6499.2'
p1009
sa(dp1010
g5
I35
sg6
I01
sg7
I36
sg8
S'6499.32'
p1011
sa(dp1012
g5
I35
sg6
I01
sg7
I36
sg8
S'6499.2'
p1013
sa(dp1014
g5
I35
sg6
I01
sg7
I36
sg8
S'6499.32'
p1015
sa(dp1016
g5
I35
sg6
I01
sg7
I36
sg8
S'6499.2'
p1017
sa(dp1018
g5
I35
sg6
I01
sg7
I36
sg8
S'6499.32'
p1019
sa(dp1020
g5
I35
sg6
I01
sg7
I36
sg8
S'6499.2'
p1021
sa(dp1022
g5
I35
sg6
I01
sg7
I36
sg8
S'6499.32'
p1023
sa(dp1024
g5
I35
sg6
I01
sg7
I36
sg8
S'6499.2'
p1025
sa(dp1026
g5
I35
sg6
I01
sg7
I36
sg8
S'6499.32'
p1027
sa(dp1028
g5
I36
sg6
I01
sg7
I36
sg8
S'6499.2'
p1029
sa(dp1030
g5
I36
sg6
I01
sg7
I37
sg8
S'6499.32'
p1031
sa(dp1032
g5
I37
sg6
I01
sg7
I37
sg8
S'6499.2'
p1033
sa(dp1034
g5
I37
sg6
I01
sg7
I38
sg8
S'6499.32'
p1035
sa(dp1036
g5
I37
sg6
I01
sg7
I38
sg8
S'6499.2'
p1037
sa(dp1038
g5
I37
sg6
I01
sg7
I38
sg8
S'6499.32'
p1039
sa(dp1040
g5
I38
sg6
I01
sg7
I38
sg8
S'6499.2'
p1041
sa(dp1042
g5
I38
sg6
I01
sg7
I39
sg8
S'6499.32'
p1043
sa(dp1044
g5
I38
sg6
I01
sg7
I39
sg8
S'6499.2'
p1045
sa(dp1046
g5
I38
sg6
I01
sg7
I39
sg8
S'6499.32'
p1047
sa(dp1048
g5
I38
sg6
I01
sg7
I39
sg8
S'6499.2'
p1049
sa(dp1050
g5
I38
sg6
I01
sg7
I39
sg8
S'6499.32'
p1051
sa(dp1052
g5
I38
sg6
I01
sg7
I39
sg8
S'6499.2'
p1053
sa(dp1054
g5
I38
sg6
I01
sg7
I39
sg8
S'6499.32'
p1055
sa(dp1056
g5
I38
sg6
I01
sg7
I39
sg8
S'6499.2'
p1057
sa(dp1058
g5
I38
sg6
I01
sg7
I39
sg8
S'6499.32'
p1059
sa(dp1060
g5
I38
sg6
I01
sg7
I39
sg8
S'6499.2'
p1061
sa(dp1062
g5
I38
sg6
I01
sg7
I39
sg8
S'6499.32'
p1063
sa(dp1064
g5
I38
sg6
I01
sg7
I39
sg8
S'6499.2'
p1065
sa(dp1066
g5
I38
sg6
I01
sg7
I39
sg8
S'6499.32'
p1067
sa(dp1068
g5
I38
sg6
I01
sg7
I39
sg8
S'6499.2'
p1069
sa(dp1070
g5
I38
sg6
I01
sg7
I39
sg8
S'6499.32'
p1071
sa(dp1072
g5
I38
sg6
I01
sg7
I39
sg8
S'6499.2'
p1073
sa(dp1074
g5
I38
sg6
I01
sg7
I39
sg8
S'6499.32'
p1075
sa(dp1076
g5
I38
sg6
I01
sg7
I39
sg8
S'6499.2'
p1077
sa(dp1078
g5
I38
sg6
I01
sg7
I39
sg8
S'6499.32'
p1079
sa(dp1080
g5
I38
sg6
I01
sg7
I39
sg8
S'6499.2'
p1081
sa(dp1082
g5
I38
sg6
I01
sg7
I39
sg8
S'6499.32'
p1083
sa(dp1084
g5
I38
sg6
I01
sg7
I39
sg8
S'6499.2'
p1085
sa(dp1086
g5
I38
sg6
I01
sg7
I39
sg8
S'6499.32'
p1087
sa(dp1088
g5
I38
sg6
I01
sg7
I39
sg8
S'6499.2'
p1089
sa(dp1090
g5
I38
sg6
I01
sg7
I39
sg8
S'6499.32'
p1091
sa(dp1092
g5
I38
sg6
I01
sg7
I39
sg8
S'6499.2'
p1093
sa(dp1094
g5
I39
sg6
I01
sg7
I39
sg8
S'6499.32'
p1095
sa(dp1096
g5
I39
sg6
I01
sg7
I40
sg8
S'6499.2'
p1097
sa(dp1098
g5
I39
sg6
I01
sg7
I40
sg8
S'6499.32'
p1099
sa(dp1100
g5
I39
sg6
I01
sg7
I40
sg8
S'6499.2'
p1101
sa(dp1102
g5
I39
sg6
I01
sg7
I40
sg8
S'6499.32'
p1103
sa(dp1104
g5
I39
sg6
I01
sg7
I40
sg8
S'6499.2'
p1105
sa(dp1106
g5
I39
sg6
I01
sg7
I40
sg8
S'6499.32'
p1107
sa(dp1108
g5
I39
sg6
I01
sg7
I40
sg8
S'6499.2'
p1109
sa(dp1110
g5
I39
sg6
I01
sg7
I40
sg8
S'6499.32'
p1111
sa(dp1112
g5
I39
sg6
I01
sg7
I40
sg8
S'6499.2'
p1113
sa(dp1114
g5
I39
sg6
I01
sg7
I40
sg8
S'6499.32'
p1115
sa(dp1116
g5
I39
sg6
I01
sg7
I40
sg8
S'6499.2'
p1117
sa(dp1118
g5
I39
sg6
I01
sg7
I40
sg8
S'6499.32'
p1119
sa(dp1120
g5
I39
sg6
I01
sg7
I40
sg8
S'6499.2'
p1121
sa(dp1122
g5
I39
sg6
I01
sg7
I40
sg8
S'6499.32'
p1123
sa(dp1124
g5
I39
sg6
I01
sg7
I40
sg8
S'6499.2'
p1125
sa(dp1126
g5
I39
sg6
I01
sg7
I40
sg8
S'6499.32'
p1127
sa(dp1128
g5
I39
sg6
I01
sg7
I40
sg8
S'6499.2'
p1129
sa(dp1130
g5
I39
sg6
I01
sg7
I40
sg8
S'6499.32'
p1131
sa(dp1132
g5
I39
sg6
I01
sg7
I40
sg8
S'6499.2'
p1133
sa(dp1134
g5
I39
sg6
I01
sg7
I40
sg8
S'6499.32'
p1135
sa(dp1136
g5
I39
sg6
I01
sg7
I40
sg8
S'6499.2'
p1137
sa(dp1138
g5
I39
sg6
I01
sg7
I40
sg8
S'6499.32'
p1139
sa(dp1140
g5
I39
sg6
I01
sg7
I40
sg8
S'6499.2'
p1141
sa(dp1142
g5
I39
sg6
I01
sg7
I40
sg8
S'6499.32'
p1143
sa(dp1144
g5
I40
sg6
I01
sg7
I40
sg8
S'6499.2'
p1145
sa(dp1146
g5
I40
sg6
I01
sg7
I41
sg8
S'6499.32'
p1147
sa(dp1148
g5
I40
sg6
I01
sg7
I41
sg8
S'6499.2'
p1149
sa(dp1150
g5
I40
sg6
I01
sg7
I41
sg8
S'6499.32'
p1151
sa(dp1152
g5
I40
sg6
I01
sg7
I41
sg8
S'6499.2'
p1153
sa(dp1154
g5
I40
sg6
I01
sg7
I41
sg8
S'6499.32'
p1155
sa(dp1156
g5
I40
sg6
I01
sg7
I41
sg8
S'6499.2'
p1157
sa(dp1158
g5
I40
sg6
I01
sg7
I41
sg8
S'6499.32'
p1159
sa(dp1160
g5
I40
sg6
I01
sg7
I41
sg8
S'6499.2'
p1161
sa(dp1162
g5
I40
sg6
I01
sg7
I41
sg8
S'6499.32'
p1163
sa(dp1164
g5
I40
sg6
I01
sg7
I41
sg8
S'6499.2'
p1165
sa(dp1166
g5
I40
sg6
I01
sg7
I41
sg8
S'6499.32'
p1167
sa(dp1168
g5
I40
sg6
I01
sg7
I41
sg8
S'6499.2'
p1169
sa(dp1170
g5
I40
sg6
I01
sg7
I41
sg8
S'6499.32'
p1171
sa(dp1172
g5
I40
sg6
I01
sg7
I41
sg8
S'6499.2'
p1173
sa(dp1174
g5
I40
sg6
I01
sg7
I41
sg8
S'6499.08'
p1175
sa(dp1176
g5
I40
sg6
I01
sg7
I41
sg8
S'6499.32'
p1177
sa(dp1178
g5
I40
sg6
I01
sg7
I41
sg8
S'6499.2'
p1179
sa(dp1180
g5
I40
sg6
I01
sg7
I41
sg8
S'6499.32'
p1181
sa(dp1182
g5
I40
sg6
I01
sg7
I41
sg8
S'6499.2'
p1183
sa(dp1184
g5
I40
sg6
I01
sg7
I41
sg8
S'6499.32'
p1185
sa(dp1186
g5
I40
sg6
I01
sg7
I41
sg8
S'6499.2'
p1187
sa(dp1188
g5
I40
sg6
I01
sg7
I41
sg8
S'6499.32'
p1189
sa(dp1190
g5
I40
sg6
I01
sg7
I41
sg8
S'6499.2'
p1191
sa(dp1192
g5
I40
sg6
I01
sg7
I41
sg8
S'6499.32'
p1193
sa(dp1194
g5
I41
sg6
I01
sg7
I41
sg8
S'6499.2'
p1195
sa(dp1196
g5
I41
sg6
I01
sg7
I42
sg8
S'6499.32'
p1197
sa(dp1198
g5
I41
sg6
I01
sg7
I42
sg8
S'6499.2'
p1199
sa(dp1200
g5
I41
sg6
I01
sg7
I42
sg8
S'6499.32'
p1201
sa(dp1202
g5
I41
sg6
I01
sg7
I42
sg8
S'6499.2'
p1203
sa(dp1204
g5
I41
sg6
I01
sg7
I42
sg8
S'6499.32'
p1205
sa(dp1206
g5
I41
sg6
I01
sg7
I42
sg8
S'6499.2'
p1207
sa(dp1208
g5
I41
sg6
I01
sg7
I42
sg8
S'6499.32'
p1209
sa(dp1210
g5
I41
sg6
I01
sg7
I42
sg8
S'6499.2'
p1211
sa(dp1212
g5
I42
sg6
I01
sg7
I42
sg8
S'6499.32'
p1213
sa(dp1214
g5
I42
sg6
I01
sg7
I43
sg8
S'6499.2'
p1215
sa(dp1216
g5
I42
sg6
I01
sg7
I43
sg8
S'6499.32'
p1217
sa(dp1218
g5
I42
sg6
I01
sg7
I43
sg8
S'6499.2'
p1219
sa(dp1220
g5
I42
sg6
I01
sg7
I43
sg8
S'6499.32'
p1221
sa(dp1222
g5
I42
sg6
I01
sg7
I43
sg8
S'6499.2'
p1223
sa(dp1224
g5
I42
sg6
I01
sg7
I43
sg8
S'6499.32'
p1225
sa(dp1226
g5
I42
sg6
I01
sg7
I43
sg8
S'6499.2'
p1227
sa(dp1228
g5
I42
sg6
I01
sg7
I43
sg8
S'6499.32'
p1229
sa(dp1230
g5
I42
sg6
I01
sg7
I43
sg8
S'6499.2'
p1231
sa(dp1232
g5
I42
sg6
I01
sg7
I43
sg8
S'6499.32'
p1233
sa(dp1234
g5
I42
sg6
I01
sg7
I43
sg8
S'6499.2'
p1235
sa(dp1236
g5
I42
sg6
I01
sg7
I43
sg8
S'6499.32'
p1237
sa(dp1238
g5
I42
sg6
I01
sg7
I43
sg8
S'6499.2'
p1239
sa(dp1240
g5
I42
sg6
I01
sg7
I43
sg8
S'6499.32'
p1241
sa(dp1242
g5
I42
sg6
I01
sg7
I43
sg8
S'6499.2'
p1243
sa(dp1244
g5
I42
sg6
I01
sg7
I43
sg8
S'6499.32'
p1245
sa(dp1246
g5
I42
sg6
I01
sg7
I43
sg8
S'6499.2'
p1247
sa(dp1248
g5
I42
sg6
I01
sg7
I43
sg8
S'6499.32'
p1249
sa(dp1250
g5
I42
sg6
I01
sg7
I43
sg8
S'6499.2'
p1251
sa(dp1252
g5
I42
sg6
I01
sg7
I43
sg8
S'6499.32'
p1253
sa(dp1254
g5
I43
sg6
I01
sg7
I43
sg8
S'6499.2'
p1255
sa(dp1256
g5
I43
sg6
I01
sg7
I44
sg8
S'6499.32'
p1257
sa(dp1258
g5
I43
sg6
I01
sg7
I44
sg8
S'6499.2'
p1259
sa(dp1260
g5
I43
sg6
I01
sg7
I44
sg8
S'6499.32'
p1261
sa(dp1262
g5
I43
sg6
I01
sg7
I44
sg8
S'6499.2'
p1263
sa(dp1264
g5
I43
sg6
I01
sg7
I44
sg8
S'6499.32'
p1265
sa(dp1266
g5
I43
sg6
I01
sg7
I44
sg8
S'6499.2'
p1267
sa(dp1268
g5
I43
sg6
I01
sg7
I44
sg8
S'6499.32'
p1269
sa(dp1270
g5
I43
sg6
I01
sg7
I44
sg8
S'6499.2'
p1271
sa(dp1272
g5
I43
sg6
I01
sg7
I44
sg8
S'6499.32'
p1273
sa(dp1274
g5
I43
sg6
I01
sg7
I44
sg8
S'6499.2'
p1275
sa(dp1276
g5
I43
sg6
I01
sg7
I44
sg8
S'6499.32'
p1277
sa(dp1278
g5
I43
sg6
I01
sg7
I44
sg8
S'6499.2'
p1279
sa(dp1280
g5
I43
sg6
I01
sg7
I44
sg8
S'6499.32'
p1281
sa(dp1282
g5
I43
sg6
I01
sg7
I44
sg8
S'6499.2'
p1283
sa(dp1284
g5
I43
sg6
I01
sg7
I44
sg8
S'6499.32'
p1285
sa(dp1286
g5
I43
sg6
I01
sg7
I44
sg8
S'6499.2'
p1287
sa(dp1288
g5
I43
sg6
I01
sg7
I44
sg8
S'6499.32'
p1289
sa(dp1290
g5
I43
sg6
I01
sg7
I44
sg8
S'6499.2'
p1291
sa(dp1292
g5
I43
sg6
I01
sg7
I44
sg8
S'6499.32'
p1293
sa(dp1294
g5
I43
sg6
I01
sg7
I44
sg8
S'6499.2'
p1295
sa(dp1296
g5
I43
sg6
I01
sg7
I44
sg8
S'6499.32'
p1297
sa(dp1298
g5
I43
sg6
I01
sg7
I44
sg8
S'6499.2'
p1299
sa(dp1300
g5
I44
sg6
I01
sg7
I44
sg8
S'6499.32'
p1301
sa(dp1302
g5
I44
sg6
I01
sg7
I45
sg8
S'6499.2'
p1303
sa(dp1304
g5
I44
sg6
I01
sg7
I45
sg8
S'6499.32'
p1305
sa(dp1306
g5
I44
sg6
I01
sg7
I45
sg8
S'6499.2'
p1307
sa(dp1308
g5
I44
sg6
I01
sg7
I45
sg8
S'6499.32'
p1309
sa(dp1310
g5
I44
sg6
I01
sg7
I45
sg8
S'6499.2'
p1311
sa(dp1312
g5
I44
sg6
I01
sg7
I45
sg8
S'6499.32'
p1313
sa(dp1314
g5
I44
sg6
I01
sg7
I45
sg8
S'6499.2'
p1315
sa(dp1316
g5
I44
sg6
I01
sg7
I45
sg8
S'6499.32'
p1317
sa(dp1318
g5
I44
sg6
I01
sg7
I45
sg8
S'6499.2'
p1319
sa(dp1320
g5
I44
sg6
I01
sg7
I45
sg8
S'6499.32'
p1321
sa(dp1322
g5
I44
sg6
I01
sg7
I45
sg8
S'6499.2'
p1323
sa(dp1324
g5
I44
sg6
I01
sg7
I45
sg8
S'6499.32'
p1325
sa(dp1326
g5
I44
sg6
I01
sg7
I45
sg8
S'6499.2'
p1327
sa(dp1328
g5
I44
sg6
I01
sg7
I45
sg8
S'6499.32'
p1329
sa(dp1330
g5
I44
sg6
I01
sg7
I45
sg8
S'6499.2'
p1331
sa(dp1332
g5
I44
sg6
I01
sg7
I45
sg8
S'6499.32'
p1333
sa(dp1334
g5
I44
sg6
I01
sg7
I45
sg8
S'6499.2'
p1335
sa(dp1336
g5
I44
sg6
I01
sg7
I45
sg8
S'6499.32'
p1337
sa(dp1338
g5
I44
sg6
I01
sg7
I45
sg8
S'6499.2'
p1339
sa(dp1340
g5
I44
sg6
I01
sg7
I45
sg8
S'6499.32'
p1341
sa(dp1342
g5
I44
sg6
I01
sg7
I45
sg8
S'6499.2'
p1343
sa(dp1344
g5
I44
sg6
I01
sg7
I45
sg8
S'6499.32'
p1345
sa(dp1346
g5
I44
sg6
I01
sg7
I45
sg8
S'6499.2'
p1347
sa(dp1348
g5
I45
sg6
I01
sg7
I45
sg8
S'6499.32'
p1349
sa(dp1350
g5
I45
sg6
I01
sg7
I46
sg8
S'6499.2'
p1351
sa(dp1352
g5
I45
sg6
I01
sg7
I46
sg8
S'6499.32'
p1353
sa(dp1354
g5
I45
sg6
I01
sg7
I46
sg8
S'6499.2'
p1355
sa(dp1356
g5
I45
sg6
I01
sg7
I46
sg8
S'6499.32'
p1357
sa(dp1358
g5
I45
sg6
I01
sg7
I46
sg8
S'6499.2'
p1359
sa(dp1360
g5
I45
sg6
I01
sg7
I46
sg8
S'6499.32'
p1361
sa(dp1362
g5
I45
sg6
I01
sg7
I46
sg8
S'6499.2'
p1363
sa(dp1364
g5
I45
sg6
I01
sg7
I46
sg8
S'6499.32'
p1365
sa(dp1366
g5
I45
sg6
I01
sg7
I46
sg8
S'6499.2'
p1367
sa(dp1368
g5
I45
sg6
I01
sg7
I46
sg8
S'6499.32'
p1369
sa(dp1370
g5
I45
sg6
I01
sg7
I46
sg8
S'6499.2'
p1371
sa(dp1372
g5
I45
sg6
I01
sg7
I46
sg8
S'6499.32'
p1373
sa(dp1374
g5
I45
sg6
I01
sg7
I46
sg8
S'6499.2'
p1375
sa(dp1376
g5
I45
sg6
I01
sg7
I46
sg8
S'6499.32'
p1377
sa(dp1378
g5
I45
sg6
I01
sg7
I46
sg8
S'6499.2'
p1379
sa(dp1380
g5
I45
sg6
I01
sg7
I46
sg8
S'6499.32'
p1381
sa(dp1382
g5
I45
sg6
I01
sg7
I46
sg8
S'6499.2'
p1383
sa(dp1384
g5
I45
sg6
I01
sg7
I46
sg8
S'6499.32'
p1385
sa(dp1386
g5
I45
sg6
I01
sg7
I46
sg8
S'6499.2'
p1387
sa(dp1388
g5
I45
sg6
I01
sg7
I46
sg8
S'6499.32'
p1389
sa(dp1390
g5
I45
sg6
I01
sg7
I46
sg8
S'6499.2'
p1391
sa(dp1392
g5
I45
sg6
I01
sg7
I46
sg8
S'6499.32'
p1393
sa(dp1394
g5
I46
sg6
I01
sg7
I46
sg8
S'6499.2'
p1395
sa(dp1396
g5
I46
sg6
I01
sg7
I47
sg8
S'6499.32'
p1397
sa(dp1398
g5
I46
sg6
I01
sg7
I47
sg8
S'6499.2'
p1399
sa(dp1400
g5
I46
sg6
I01
sg7
I47
sg8
S'6499.32'
p1401
sa(dp1402
g5
I46
sg6
I01
sg7
I47
sg8
S'6499.2'
p1403
sa(dp1404
g5
I46
sg6
I01
sg7
I47
sg8
S'6499.32'
p1405
sa(dp1406
g5
I46
sg6
I01
sg7
I47
sg8
S'6499.2'
p1407
sa(dp1408
g5
I46
sg6
I01
sg7
I47
sg8
S'6499.32'
p1409
sa(dp1410
g5
I46
sg6
I01
sg7
I47
sg8
S'6499.2'
p1411
sa(dp1412
g5
I46
sg6
I01
sg7
I47
sg8
S'6499.08'
p1413
sa(dp1414
g5
I46
sg6
I01
sg7
I47
sg8
S'6499.2'
p1415
sa(dp1416
g5
I46
sg6
I01
sg7
I47
sg8
S'6499.32'
p1417
sa(dp1418
g5
I47
sg6
I01
sg7
I47
sg8
S'6499.2'
p1419
sa(dp1420
g5
I47
sg6
I01
sg7
I48
sg8
S'6499.32'
p1421
sa(dp1422
g5
I47
sg6
I01
sg7
I48
sg8
S'6499.2'
p1423
sa(dp1424
g5
I47
sg6
I01
sg7
I48
sg8
S'6499.32'
p1425
sa(dp1426
g5
I47
sg6
I01
sg7
I48
sg8
S'6499.2'
p1427
sa(dp1428
g5
I47
sg6
I01
sg7
I48
sg8
S'6499.32'
p1429
sa(dp1430
g5
I48
sg6
I01
sg7
I48
sg8
S'6499.2'
p1431
sa(dp1432
g5
I48
sg6
I01
sg7
I49
sg8
S'6499.32'
p1433
sa(dp1434
g5
I48
sg6
I01
sg7
I49
sg8
S'6499.2'
p1435
sa(dp1436
g5
I48
sg6
I01
sg7
I49
sg8
S'6499.32'
p1437
sa(dp1438
g5
I49
sg6
I01
sg7
I49
sg8
S'6499.2'
p1439
sa(dp1440
g5
I49
sg6
I01
sg7
I50
sg8
S'6499.32'
p1441
sa(dp1442
g5
I49
sg6
I01
sg7
I50
sg8
S'6499.2'
p1443
sa(dp1444
g5
I49
sg6
I01
sg7
I50
sg8
S'6499.32'
p1445
sa(dp1446
g5
I50
sg6
I01
sg7
I50
sg8
S'6499.2'
p1447
sa(dp1448
g5
I50
sg6
I01
sg7
I51
sg8
S'6499.32'
p1449
sa(dp1450
g5
I50
sg6
I01
sg7
I51
sg8
S'6499.2'
p1451
sa(dp1452
g5
I50
sg6
I01
sg7
I51
sg8
S'6499.08'
p1453
sa(dp1454
g5
I51
sg6
I01
sg7
I51
sg8
S'6499.2'
p1455
sa(dp1456
g5
I51
sg6
I01
sg7
I52
sg8
S'6499.32'
p1457
sa(dp1458
g5
I51
sg6
I01
sg7
I52
sg8
S'6499.2'
p1459
sa(dp1460
g5
I51
sg6
I01
sg7
I52
sg8
S'6499.32'
p1461
sa(dp1462
g5
I53
sg6
I01
sg7
I52
sg8
S'6499.2'
p1463
sa(dp1464
g5
I53
sg6
I01
sg7
I54
sg8
S'6499.32'
p1465
sa(dp1466
g5
I53
sg6
I01
sg7
I54
sg8
S'6499.2'
p1467
sa(dp1468
g5
I53
sg6
I01
sg7
I54
sg8
S'6499.32'
p1469
sa(dp1470
g5
I54
sg6
I01
sg7
I54
sg8
S'6499.2'
p1471
sa(dp1472
g5
I54
sg6
I01
sg7
I55
sg8
S'6499.32'
p1473
sa(dp1474
g5
I55
sg6
I01
sg7
I55
sg8
S'6499.2'
p1475
sa(dp1476
g5
I56
sg6
I01
sg7
I56
sg8
S'6499.32'
p1477
sa(dp1478
g5
I56
sg6
I01
sg7
I57
sg8
S'6499.2'
p1479
sa(dp1480
g5
I57
sg6
I01
sg7
I57
sg8
S'6499.32'
p1481
sa(dp1482
g5
I57
sg6
I01
sg7
I58
sg8
S'6499.2'
p1483
sa(dp1484
g5
I57
sg6
I01
sg7
I58
sg8
S'6499.32'
p1485
sa(dp1486
g5
I57
sg6
I01
sg7
I58
sg8
S'6499.2'
p1487
sa(dp1488
g5
I57
sg6
I01
sg7
I58
sg8
S'6499.32'
p1489
sa(dp1490
g5
I57
sg6
I01
sg7
I58
sg8
S'6499.2'
p1491
sa(dp1492
g5
I58
sg6
I01
sg7
I58
sg8
S'6499.32'
p1493
sa(dp1494
g5
I58
sg6
I01
sg7
I59
sg8
S'6499.2'
p1495
sa(dp1496
g5
I58
sg6
I01
sg7
I59
sg8
S'6499.32'
p1497
sa(dp1498
g5
I58
sg6
I01
sg7
I59
sg8
S'6499.2'
p1499
sa(dp1500
g5
I58
sg6
I01
sg7
I59
sg8
S'6499.32'
p1501
sa(dp1502
g5
I59
sg6
I01
sg7
I59
sg8
S'6499.2'
p1503
sa(dp1504
g5
I59
sg6
I01
sg7
I60
sg8
S'6499.32'
p1505
sa(dp1506
g5
I60
sg6
I01
sg7
I60
sg8
S'6499.2'
p1507
sa(dp1508
g5
I60
sg6
I01
sg7
I61
sg8
S'6499.32'
p1509
sa(dp1510
g5
I61
sg6
I01
sg7
I61
sg8
S'6499.2'
p1511
sa(dp1512
g5
I61
sg6
I01
sg7
I62
sg8
S'6499.32'
p1513
sa(dp1514
g5
I61
sg6
I01
sg7
I62
sg8
S'6499.2'
p1515
sa(dp1516
g5
I61
sg6
I01
sg7
I62
sg8
S'6499.32'
p1517
sa(dp1518
g5
I61
sg6
I01
sg7
I62
sg8
S'6499.2'
p1519
sa(dp1520
g5
I62
sg6
I01
sg7
I62
sg8
S'6499.32'
p1521
sa(dp1522
g5
I62
sg6
I01
sg7
I63
sg8
S'6499.2'
p1523
sa(dp1524
g5
I62
sg6
I01
sg7
I63
sg8
S'6499.32'
p1525
sa(dp1526
g5
I64
sg6
I01
sg7
I63
sg8
S'6499.2'
p1527
sa(dp1528
g5
I64
sg6
I01
sg7
I65
sg8
S'6499.32'
p1529
sa(dp1530
g5
I64
sg6
I01
sg7
I65
sg8
S'6499.2'
p1531
sa(dp1532
g5
I64
sg6
I01
sg7
I65
sg8
S'6499.32'
p1533
sa(dp1534
g5
I64
sg6
I01
sg7
I65
sg8
S'6499.2'
p1535
sa(dp1536
g5
I64
sg6
I01
sg7
I65
sg8
S'6499.32'
p1537
sa(dp1538
g5
I65
sg6
I01
sg7
I65
sg8
S'6499.2'
p1539
sa(dp1540
g5
I65
sg6
I01
sg7
I66
sg8
S'6499.32'
p1541
sa(dp1542
g5
I65
sg6
I01
sg7
I66
sg8
S'6499.2'
p1543
sa(dp1544
g5
I65
sg6
I01
sg7
I66
sg8
S'6499.32'
p1545
sa(dp1546
g5
I65
sg6
I01
sg7
I66
sg8
S'6499.2'
p1547
sa(dp1548
g5
I65
sg6
I01
sg7
I66
sg8
S'6499.32'
p1549
sa(dp1550
g5
I65
sg6
I01
sg7
I66
sg8
S'6499.2'
p1551
sa(dp1552
g5
I65
sg6
I01
sg7
I66
sg8
S'6499.32'
p1553
sa(dp1554
g5
I65
sg6
I01
sg7
I66
sg8
S'6499.2'
p1555
sa(dp1556
g5
I65
sg6
I01
sg7
I66
sg8
S'6499.32'
p1557
sa(dp1558
g5
I65
sg6
I01
sg7
I66
sg8
S'6499.2'
p1559
sa(dp1560
g5
I65
sg6
I01
sg7
I66
sg8
S'6499.32'
p1561
sa(dp1562
g5
I65
sg6
I01
sg7
I66
sg8
S'6499.2'
p1563
sa(dp1564
g5
I65
sg6
I01
sg7
I66
sg8
S'6499.32'
p1565
sa(dp1566
g5
I65
sg6
I01
sg7
I66
sg8
S'6499.2'
p1567
sa(dp1568
g5
I65
sg6
I01
sg7
I66
sg8
S'6499.32'
p1569
sa(dp1570
g5
I65
sg6
I01
sg7
I66
sg8
S'6499.2'
p1571
sa(dp1572
g5
I65
sg6
I01
sg7
I66
sg8
S'6499.32'
p1573
sa(dp1574
g5
I65
sg6
I01
sg7
I66
sg8
S'6499.2'
p1575
sa(dp1576
g5
I65
sg6
I01
sg7
I66
sg8
S'6499.32'
p1577
sa(dp1578
g5
I65
sg6
I01
sg7
I66
sg8
S'6499.2'
p1579
sa(dp1580
g5
I65
sg6
I01
sg7
I66
sg8
S'6499.32'
p1581
sa(dp1582
g5
I65
sg6
I01
sg7
I66
sg8
S'6499.2'
p1583
sa(dp1584
g5
I65
sg6
I01
sg7
I66
sg8
S'6499.32'
p1585
sa(dp1586
g5
I65
sg6
I01
sg7
I66
sg8
S'6499.2'
p1587
sa(dp1588
g5
I65
sg6
I01
sg7
I66
sg8
S'6499.32'
p1589
sa(dp1590
g5
I67
sg6
I01
sg7
I66
sg8
S'6499.2'
p1591
sa(dp1592
g5
I67
sg6
I01
sg7
I68
sg8
S'6499.32'
p1593
sa(dp1594
g5
I68
sg6
I01
sg7
I68
sg8
S'6499.2'
p1595
sa(dp1596
g5
I68
sg6
I01
sg7
I69
sg8
S'6499.32'
p1597
sa(dp1598
g5
I68
sg6
I01
sg7
I69
sg8
S'6499.2'
p1599
sa(dp1600
g5
I68
sg6
I01
sg7
I69
sg8
S'6499.32'
p1601
sa(dp1602
g5
I69
sg6
I01
sg7
I69
sg8
S'6499.2'
p1603
sa(dp1604
g5
I69
sg6
I01
sg7
I70
sg8
S'6499.32'
p1605
sa(dp1606
g5
I69
sg6
I01
sg7
I70
sg8
S'6499.2'
p1607
sa(dp1608
g5
I69
sg6
I01
sg7
I70
sg8
S'6499.32'
p1609
sa(dp1610
g5
I69
sg6
I01
sg7
I70
sg8
S'6499.2'
p1611
sa(dp1612
g5
I69
sg6
I01
sg7
I70
sg8
S'6499.32'
p1613
sa(dp1614
g5
I69
sg6
I01
sg7
I70
sg8
S'6499.2'
p1615
sa(dp1616
g5
I69
sg6
I01
sg7
I70
sg8
S'6499.32'
p1617
sa(dp1618
g5
I69
sg6
I01
sg7
I70
sg8
S'6499.2'
p1619
sa(dp1620
g5
I69
sg6
I01
sg7
I70
sg8
S'6499.32'
p1621
sa(dp1622
g5
I70
sg6
I01
sg7
I70
sg8
S'6499.2'
p1623
sa(dp1624
g5
I70
sg6
I01
sg7
I71
sg8
S'6499.32'
p1625
sa(dp1626
g5
I71
sg6
I01
sg7
I71
sg8
S'6499.2'
p1627
sa(dp1628
g5
I71
sg6
I01
sg7
I72
sg8
S'6499.32'
p1629
sa(dp1630
g5
I71
sg6
I01
sg7
I72
sg8
S'6499.2'
p1631
sa(dp1632
g5
I71
sg6
I01
sg7
I72
sg8
S'6499.32'
p1633
sa(dp1634
g5
I71
sg6
I01
sg7
I72
sg8
S'6499.2'
p1635
sa(dp1636
g5
I72
sg6
I01
sg7
I72
sg8
S'6499.32'
p1637
sa(dp1638
g5
I72
sg6
I01
sg7
I73
sg8
S'6499.2'
p1639
sa(dp1640
g5
I72
sg6
I01
sg7
I73
sg8
S'6499.32'
p1641
sa(dp1642
g5
I74
sg6
I01
sg7
I73
sg8
S'6499.2'
p1643
sa(dp1644
g5
I74
sg6
I01
sg7
I75
sg8
S'6499.32'
p1645
sa(dp1646
g5
I75
sg6
I01
sg7
I75
sg8
S'6499.2'
p1647
sa(dp1648
g5
I75
sg6
I01
sg7
I76
sg8
S'6499.08'
p1649
sa(dp1650
g5
I75
sg6
I01
sg7
I76
sg8
S'6499.2'
p1651
sa(dp1652
g5
I75
sg6
I01
sg7
I76
sg8
S'6499.32'
p1653
sa(dp1654
g5
I76
sg6
I01
sg7
I76
sg8
S'6499.2'
p1655
sa(dp1656
g5
I76
sg6
I01
sg7
I77
sg8
S'6499.32'
p1657
sa(dp1658
g5
I76
sg6
I01
sg7
I77
sg8
S'6499.2'
p1659
sa(dp1660
g5
I76
sg6
I01
sg7
I77
sg8
S'6499.32'
p1661
sa(dp1662
g5
I77
sg6
I01
sg7
I77
sg8
S'6499.2'
p1663
sa(dp1664
g5
I77
sg6
I01
sg7
I78
sg8
S'6499.32'
p1665
sa(dp1666
g5
I77
sg6
I01
sg7
I78
sg8
S'6499.2'
p1667
sa(dp1668
g5
I77
sg6
I01
sg7
I78
sg8
S'6499.32'
p1669
sa(dp1670
g5
I77
sg6
I01
sg7
I78
sg8
S'6499.2'
p1671
sa(dp1672
g5
I78
sg6
I01
sg7
I78
sg8
S'6499.32'
p1673
sa(dp1674
g5
I79
sg6
I01
sg7
I79
sg8
S'6499.2'
p1675
sa(dp1676
g5
I79
sg6
I01
sg7
I80
sg8
S'6499.32'
p1677
sa(dp1678
g5
I79
sg6
I01
sg7
I80
sg8
S'6499.2'
p1679
sa(dp1680
g5
I79
sg6
I01
sg7
I80
sg8
S'6499.32'
p1681
sa(dp1682
g5
I79
sg6
I01
sg7
I80
sg8
S'6499.08'
p1683
sa(dp1684
g5
I79
sg6
I01
sg7
I80
sg8
S'6499.2'
p1685
sa(dp1686
g5
I79
sg6
I01
sg7
I80
sg8
S'6499.32'
p1687
sa(dp1688
g5
I79
sg6
I01
sg7
I80
sg8
S'6499.2'
p1689
sa(dp1690
g5
I79
sg6
I01
sg7
I80
sg8
S'6499.32'
p1691
sa(dp1692
g5
I80
sg6
I01
sg7
I80
sg8
S'6499.2'
p1693
sa(dp1694
g5
I80
sg6
I01
sg7
I81
sg8
S'6499.32'
p1695
sa(dp1696
g5
I80
sg6
I01
sg7
I81
sg8
S'6499.2'
p1697
sa(dp1698
g5
I80
sg6
I01
sg7
I81
sg8
S'6499.32'
p1699
sa(dp1700
g5
I81
sg6
I01
sg7
I81
sg8
S'6499.2'
p1701
sa(dp1702
g5
I81
sg6
I01
sg7
I82
sg8
S'6499.32'
p1703
sa(dp1704
g5
I81
sg6
I01
sg7
I82
sg8
S'6499.2'
p1705
sa(dp1706
g5
I81
sg6
I01
sg7
I82
sg8
S'6499.32'
p1707
sa(dp1708
g5
I82
sg6
I01
sg7
I82
sg8
S'6499.2'
p1709
sa(dp1710
g5
I82
sg6
I01
sg7
I83
sg8
S'6499.32'
p1711
sa(dp1712
g5
I82
sg6
I01
sg7
I83
sg8
S'6499.2'
p1713
sa(dp1714
g5
I82
sg6
I01
sg7
I83
sg8
S'6499.32'
p1715
sa(dp1716
g5
I83
sg6
I01
sg7
I83
sg8
S'6499.2'
p1717
sa(dp1718
g5
I83
sg6
I01
sg7
I84
sg8
S'6499.32'
p1719
sa(dp1720
g5
I83
sg6
I01
sg7
I84
sg8
S'6499.2'
p1721
sa(dp1722
g5
I83
sg6
I01
sg7
I84
sg8
S'6499.32'
p1723
sa(dp1724
g5
I83
sg6
I01
sg7
I84
sg8
S'6499.2'
p1725
sa(dp1726
g5
I83
sg6
I01
sg7
I84
sg8
S'6499.32'
p1727
sa(dp1728
g5
I83
sg6
I01
sg7
I84
sg8
S'6499.2'
p1729
sa(dp1730
g5
I83
sg6
I01
sg7
I84
sg8
S'6499.32'
p1731
sa(dp1732
g5
I83
sg6
I01
sg7
I84
sg8
S'6499.2'
p1733
sa(dp1734
g5
I83
sg6
I01
sg7
I84
sg8
S'6499.32'
p1735
sa(dp1736
g5
I83
sg6
I01
sg7
I84
sg8
S'6499.2'
p1737
sa(dp1738
g5
I83
sg6
I01
sg7
I84
sg8
S'6499.32'
p1739
sa(dp1740
g5
I83
sg6
I01
sg7
I84
sg8
S'6499.2'
p1741
sa(dp1742
g5
I83
sg6
I01
sg7
I84
sg8
S'6499.32'
p1743
sa(dp1744
g5
I83
sg6
I01
sg7
I84
sg8
S'6499.2'
p1745
sa(dp1746
g5
I83
sg6
I01
sg7
I84
sg8
S'6499.32'
p1747
sa(dp1748
g5
I83
sg6
I01
sg7
I84
sg8
S'6499.2'
p1749
sa(dp1750
g5
I83
sg6
I01
sg7
I84
sg8
S'6499.32'
p1751
sa(dp1752
g5
I83
sg6
I01
sg7
I84
sg8
S'6499.2'
p1753
sa(dp1754
g5
I83
sg6
I01
sg7
I84
sg8
S'6499.32'
p1755
sa(dp1756
g5
I84
sg6
I01
sg7
I84
sg8
S'6499.2'
p1757
sa(dp1758
g5
I84
sg6
I01
sg7
I85
sg8
S'6499.32'
p1759
sa(dp1760
g5
I84
sg6
I01
sg7
I85
sg8
S'6499.2'
p1761
sa(dp1762
g5
I84
sg6
I01
sg7
I85
sg8
S'6499.32'
p1763
sa(dp1764
g5
I84
sg6
I01
sg7
I85
sg8
S'6499.2'
p1765
sa(dp1766
g5
I84
sg6
I01
sg7
I85
sg8
S'6499.32'
p1767
sa(dp1768
g5
I84
sg6
I01
sg7
I85
sg8
S'6499.2'
p1769
sa(dp1770
g5
I84
sg6
I01
sg7
I85
sg8
S'6499.32'
p1771
sa(dp1772
g5
I85
sg6
I01
sg7
I85
sg8
S'6499.2'
p1773
sa(dp1774
g5
I85
sg6
I01
sg7
I86
sg8
S'6499.32'
p1775
sa(dp1776
g5
I85
sg6
I01
sg7
I86
sg8
S'6499.2'
p1777
sa(dp1778
g5
I85
sg6
I01
sg7
I86
sg8
S'6499.32'
p1779
sa(dp1780
g5
I85
sg6
I01
sg7
I86
sg8
S'6499.2'
p1781
sa(dp1782
g5
I85
sg6
I01
sg7
I86
sg8
S'6499.32'
p1783
sa(dp1784
g5
I86
sg6
I01
sg7
I86
sg8
S'6499.2'
p1785
sa(dp1786
g5
I86
sg6
I01
sg7
I87
sg8
S'6499.32'
p1787
sa(dp1788
g5
I86
sg6
I01
sg7
I87
sg8
S'6499.2'
p1789
sa(dp1790
g5
I86
sg6
I01
sg7
I87
sg8
S'6499.32'
p1791
sa(dp1792
g5
I86
sg6
I01
sg7
I87
sg8
S'6499.2'
p1793
sa(dp1794
g5
I86
sg6
I01
sg7
I87
sg8
S'6499.32'
p1795
sa(dp1796
g5
I87
sg6
I01
sg7
I87
sg8
S'6499.2'
p1797
sa(dp1798
g5
I87
sg6
I01
sg7
I88
sg8
S'6499.32'
p1799
sa(dp1800
g5
I88
sg6
I01
sg7
I88
sg8
S'6499.2'
p1801
sa(dp1802
g5
I88
sg6
I01
sg7
I89
sg8
S'6499.32'
p1803
sa(dp1804
g5
I88
sg6
I01
sg7
I89
sg8
S'6499.2'
p1805
sa(dp1806
g5
I88
sg6
I01
sg7
I89
sg8
S'6499.32'
p1807
sa(dp1808
g5
I88
sg6
I01
sg7
I89
sg8
S'6499.2'
p1809
sa(dp1810
g5
I88
sg6
I01
sg7
I89
sg8
S'6499.32'
p1811
sa(dp1812
g5
I89
sg6
I01
sg7
I89
sg8
S'6499.2'
p1813
sa(dp1814
g5
I89
sg6
I01
sg7
I90
sg8
S'6499.32'
p1815
sa(dp1816
g5
I89
sg6
I01
sg7
I90
sg8
S'6499.2'
p1817
sa(dp1818
g5
I89
sg6
I01
sg7
I90
sg8
S'6499.32'
p1819
sa(dp1820
g5
I90
sg6
I01
sg7
I90
sg8
S'6499.2'
p1821
sa(dp1822
g5
I90
sg6
I01
sg7
I91
sg8
S'6499.32'
p1823
sa(dp1824
g5
I90
sg6
I01
sg7
I91
sg8
S'6499.2'
p1825
sa(dp1826
g5
I90
sg6
I01
sg7
I91
sg8
S'6499.32'
p1827
sa(dp1828
g5
I90
sg6
I01
sg7
I91
sg8
S'6499.2'
p1829
sa(dp1830
g5
I90
sg6
I01
sg7
I91
sg8
S'6499.32'
p1831
sa(dp1832
g5
I91
sg6
I01
sg7
I91
sg8
S'6499.2'
p1833
sa(dp1834
g5
I91
sg6
I01
sg7
I92
sg8
S'6499.32'
p1835
sa(dp1836
g5
I91
sg6
I01
sg7
I92
sg8
S'6499.2'
p1837
sa(dp1838
g5
I91
sg6
I01
sg7
I92
sg8
S'6499.32'
p1839
sa(dp1840
g5
I92
sg6
I01
sg7
I92
sg8
S'6499.2'
p1841
sa(dp1842
g5
I92
sg6
I01
sg7
I93
sg8
S'6499.32'
p1843
sa(dp1844
g5
I92
sg6
I01
sg7
I93
sg8
S'6499.2'
p1845
sa(dp1846
g5
I93
sg6
I01
sg7
I93
sg8
S'6499.32'
p1847
sa(dp1848
g5
I93
sg6
I01
sg7
I94
sg8
S'6499.2'
p1849
sa(dp1850
g5
I93
sg6
I01
sg7
I94
sg8
S'6499.32'
p1851
sa(dp1852
g5
I93
sg6
I01
sg7
I94
sg8
S'6499.2'
p1853
sa(dp1854
g5
I94
sg6
I01
sg7
I94
sg8
S'6499.32'
p1855
sa(dp1856
g5
I94
sg6
I01
sg7
I95
sg8
S'6499.2'
p1857
sa(dp1858
g5
I94
sg6
I01
sg7
I95
sg8
S'6499.32'
p1859
sa(dp1860
g5
I95
sg6
I01
sg7
I95
sg8
S'6499.2'
p1861
sa(dp1862
g5
I95
sg6
I01
sg7
I96
sg8
S'6499.32'
p1863
sa(dp1864
g5
I96
sg6
I01
sg7
I96
sg8
S'6499.2'
p1865
sa(dp1866
g5
I96
sg6
I01
sg7
I97
sg8
S'6499.32'
p1867
sa(dp1868
g5
I98
sg6
I01
sg7
I97
sg8
S'6499.2'
p1869
sa(dp1870
g5
I98
sg6
I01
sg7
I99
sg8
S'6499.32'
p1871
sa(dp1872
g5
I99
sg6
I01
sg7
I99
sg8
S'6499.2'
p1873
sa(dp1874
g5
I99
sg6
I01
sg7
I100
sg8
S'6499.32'
p1875
sa(dp1876
g5
I99
sg6
I01
sg7
I100
sg8
S'6499.2'
p1877
sa(dp1878
g5
I99
sg6
I01
sg7
I100
sg8
S'6499.32'
p1879
sa(dp1880
g5
I100
sg6
I01
sg7
I100
sg8
S'6499.2'
p1881
sa(dp1882
g5
I100
sg6
I01
sg7
I101
sg8
S'6499.32'
p1883
sa(dp1884
g5
I100
sg6
I01
sg7
I101
sg8
S'6499.2'
p1885
sa(dp1886
g5
I100
sg6
I01
sg7
I101
sg8
S'6499.32'
p1887
sa(dp1888
g5
I101
sg6
I01
sg7
I101
sg8
S'6499.2'
p1889
sa(dp1890
g5
I101
sg6
I01
sg7
I102
sg8
S'6499.32'
p1891
sa(dp1892
g5
I101
sg6
I01
sg7
I102
sg8
S'6499.2'
p1893
sa(dp1894
g5
I101
sg6
I01
sg7
I102
sg8
S'6499.32'
p1895
sa(dp1896
g5
I102
sg6
I01
sg7
I102
sg8
S'6499.2'
p1897
sa(dp1898
g5
I102
sg6
I01
sg7
I103
sg8
S'6499.32'
p1899
sa(dp1900
g5
I104
sg6
I01
sg7
I103
sg8
S'6499.2'
p1901
sa(dp1902
g5
I104
sg6
I01
sg7
I105
sg8
S'6499.32'
p1903
sa(dp1904
g5
I104
sg6
I01
sg7
I105
sg8
S'6499.2'
p1905
sa(dp1906
g5
I104
sg6
I01
sg7
I105
sg8
S'6499.32'
p1907
sa(dp1908
g5
I104
sg6
I01
sg7
I105
sg8
S'6499.2'
p1909
sa(dp1910
g5
I104
sg6
I01
sg7
I105
sg8
S'6499.32'
p1911
sa(dp1912
g5
I104
sg6
I01
sg7
I105
sg8
S'6499.2'
p1913
sa(dp1914
g5
I104
sg6
I01
sg7
I105
sg8
S'6499.32'
p1915
sa(dp1916
g5
I104
sg6
I01
sg7
I105
sg8
S'6499.2'
p1917
sa(dp1918
g5
I104
sg6
I01
sg7
I105
sg8
S'6499.32'
p1919
sa(dp1920
g5
I104
sg6
I01
sg7
I105
sg8
S'6499.2'
p1921
sa(dp1922
g5
I104
sg6
I01
sg7
I105
sg8
S'6499.08'
p1923
sa(dp1924
g5
I104
sg6
I01
sg7
I105
sg8
S'6499.2'
p1925
sa(dp1926
g5
I104
sg6
I01
sg7
I105
sg8
S'6499.32'
p1927
sa(dp1928
g5
I104
sg6
I01
sg7
I105
sg8
S'6499.2'
p1929
sa(dp1930
g5
I104
sg6
I01
sg7
I105
sg8
S'6499.32'
p1931
sa(dp1932
g5
I104
sg6
I01
sg7
I105
sg8
S'6499.2'
p1933
sa(dp1934
g5
I104
sg6
I01
sg7
I105
sg8
S'6499.32'
p1935
sa(dp1936
g5
I104
sg6
I01
sg7
I105
sg8
S'6499.2'
p1937
sa(dp1938
g5
I105
sg6
I01
sg7
I105
sg8
S'6499.32'
p1939
sa(dp1940
g5
I105
sg6
I01
sg7
I106
sg8
S'6499.2'
p1941
sa(dp1942
g5
I105
sg6
I01
sg7
I106
sg8
S'6499.32'
p1943
sa(dp1944
g5
I105
sg6
I01
sg7
I106
sg8
S'6499.2'
p1945
sa(dp1946
g5
I105
sg6
I01
sg7
I106
sg8
S'6499.32'
p1947
sa(dp1948
g5
I105
sg6
I01
sg7
I106
sg8
S'6499.2'
p1949
sa(dp1950
g5
I105
sg6
I01
sg7
I106
sg8
S'6499.32'
p1951
sa(dp1952
g5
I106
sg6
I01
sg7
I106
sg8
S'6499.2'
p1953
sa(dp1954
g5
I106
sg6
I01
sg7
I107
sg8
S'6499.32'
p1955
sa(dp1956
g5
I106
sg6
I01
sg7
I107
sg8
S'6499.2'
p1957
sa(dp1958
g5
I106
sg6
I01
sg7
I107
sg8
S'6499.32'
p1959
sa(dp1960
g5
I107
sg6
I01
sg7
I107
sg8
S'6499.2'
p1961
sa(dp1962
g5
I107
sg6
I01
sg7
I108
sg8
S'6499.32'
p1963
sa(dp1964
g5
I107
sg6
I01
sg7
I108
sg8
S'6499.2'
p1965
sa(dp1966
g5
I107
sg6
I01
sg7
I108
sg8
S'6499.32'
p1967
sa(dp1968
g5
I108
sg6
I01
sg7
I108
sg8
S'6499.2'
p1969
sa(dp1970
g5
I108
sg6
I01
sg7
I109
sg8
S'6499.32'
p1971
sa(dp1972
g5
I108
sg6
I01
sg7
I109
sg8
S'6499.2'
p1973
sa(dp1974
g5
I108
sg6
I01
sg7
I109
sg8
S'6499.32'
p1975
sa(dp1976
g5
I109
sg6
I01
sg7
I109
sg8
S'6499.2'
p1977
sa(dp1978
g5
I109
sg6
I01
sg7
I110
sg8
S'6499.32'
p1979
sa(dp1980
g5
I109
sg6
I01
sg7
I110
sg8
S'6499.2'
p1981
sa(dp1982
g5
I109
sg6
I01
sg7
I110
sg8
S'6499.32'
p1983
sa(dp1984
g5
I109
sg6
I01
sg7
I110
sg8
S'6499.2'
p1985
sa(dp1986
g5
I110
sg6
I01
sg7
I110
sg8
S'6499.32'
p1987
sa(dp1988
g5
I110
sg6
I01
sg7
I111
sg8
S'6499.2'
p1989
sa(dp1990
g5
I110
sg6
I01
sg7
I111
sg8
S'6499.32'
p1991
sa(dp1992
g5
I111
sg6
I01
sg7
I111
sg8
S'6499.2'
p1993
sa(dp1994
g5
I111
sg6
I01
sg7
I112
sg8
S'6499.32'
p1995
sa(dp1996
g5
I112
sg6
I01
sg7
I112
sg8
S'6499.2'
p1997
sa(dp1998
g5
I112
sg6
I01
sg7
I113
sg8
S'6499.32'
p1999
sa(dp2000
g5
I112
sg6
I01
sg7
I113
sg8
S'6499.2'
p2001
sa(dp2002
g5
I112
sg6
I01
sg7
I113
sg8
S'6499.08'
p2003
sa(dp2004
g5
I112
sg6
I01
sg7
I113
sg8
S'6499.2'
p2005
sa(dp2006
g5
I112
sg6
I01
sg7
I113
sg8
S'6499.32'
p2007
sa(dp2008
g5
I114
sg6
I01
sg7
I113
sg8
S'6499.2'
p2009
sa(dp2010
g5
I114
sg6
I01
sg7
I115
sg8
S'6499.32'
p2011
sa(dp2012
g5
I114
sg6
I01
sg7
I115
sg8
S'6499.2'
p2013
sa(dp2014
g5
I114
sg6
I01
sg7
I115
sg8
S'6499.32'
p2015
sa(dp2016
g5
I114
sg6
I01
sg7
I115
sg8
S'6499.2'
p2017
sa(dp2018
g5
I114
sg6
I01
sg7
I115
sg8
S'6499.32'
p2019
sa(dp2020
g5
I116
sg6
I01
sg7
I115
sg8
S'6499.2'
p2021
sa(dp2022
g5
I116
sg6
I01
sg7
I117
sg8
S'6499.32'
p2023
sa(dp2024
g5
I116
sg6
I01
sg7
I117
sg8
S'6499.2'
p2025
sa(dp2026
g5
I116
sg6
I01
sg7
I117
sg8
S'6499.32'
p2027
sa(dp2028
g5
I117
sg6
I01
sg7
I117
sg8
S'6499.2'
p2029
sa(dp2030
g5
I117
sg6
I01
sg7
I118
sg8
S'6499.32'
p2031
sa(dp2032
g5
I117
sg6
I01
sg7
I118
sg8
S'6499.2'
p2033
sa(dp2034
g5
I117
sg6
I01
sg7
I118
sg8
S'6499.32'
p2035
sa(dp2036
g5
I118
sg6
I01
sg7
I118
sg8
S'6499.2'
p2037
sa(dp2038
g5
I118
sg6
I01
sg7
I119
sg8
S'6499.32'
p2039
sa(dp2040
g5
I118
sg6
I01
sg7
I119
sg8
S'6499.2'
p2041
sa(dp2042
g5
I118
sg6
I01
sg7
I119
sg8
S'6499.32'
p2043
sa(dp2044
g5
I119
sg6
I01
sg7
I119
sg8
S'6499.2'
p2045
sa(dp2046
g5
I119
sg6
I01
sg7
I120
sg8
S'6499.32'
p2047
sa(dp2048
g5
I119
sg6
I01
sg7
I120
sg8
S'6499.2'
p2049
sa(dp2050
g5
I119
sg6
I01
sg7
I120
sg8
S'6499.32'
p2051
sa(dp2052
g5
I119
sg6
I01
sg7
I120
sg8
S'6499.2'
p2053
sa(dp2054
g5
I119
sg6
I01
sg7
I120
sg8
S'6499.32'
p2055
sa(dp2056
g5
I120
sg6
I01
sg7
I120
sg8
S'6499.2'
p2057
sa(dp2058
g5
I120
sg6
I01
sg7
I121
sg8
S'6499.32'
p2059
sa(dp2060
g5
I120
sg6
I01
sg7
I121
sg8
S'6499.2'
p2061
sa(dp2062
g5
I120
sg6
I01
sg7
I121
sg8
S'6499.32'
p2063
sa(dp2064
g5
I120
sg6
I01
sg7
I121
sg8
S'6499.2'
p2065
sa(dp2066
g5
I120
sg6
I01
sg7
I121
sg8
S'6499.32'
p2067
sa(dp2068
g5
I120
sg6
I01
sg7
I121
sg8
S'6499.2'
p2069
sa(dp2070
g5
I120
sg6
I01
sg7
I121
sg8
S'6499.32'
p2071
sa(dp2072
g5
I120
sg6
I01
sg7
I121
sg8
S'6499.2'
p2073
sa(dp2074
g5
I120
sg6
I01
sg7
I121
sg8
S'6499.32'
p2075
sa(dp2076
g5
I121
sg6
I01
sg7
I121
sg8
S'6499.2'
p2077
sa(dp2078
g5
I121
sg6
I01
sg7
I122
sg8
S'6499.32'
p2079
sa(dp2080
g5
I122
sg6
I01
sg7
I122
sg8
S'6499.2'
p2081
sa(dp2082
g5
I122
sg6
I01
sg7
I123
sg8
S'6499.32'
p2083
sa(dp2084
g5
I122
sg6
I01
sg7
I123
sg8
S'6499.2'
p2085
sa(dp2086
g5
I122
sg6
I01
sg7
I123
sg8
S'6499.32'
p2087
sa(dp2088
g5
I122
sg6
I01
sg7
I123
sg8
S'6499.2'
p2089
sa(dp2090
g5
I122
sg6
I01
sg7
I123
sg8
S'6499.32'
p2091
sa(dp2092
g5
I122
sg6
I01
sg7
I123
sg8
S'6499.2'
p2093
sa(dp2094
g5
I122
sg6
I01
sg7
I123
sg8
S'6499.32'
p2095
sa(dp2096
g5
I123
sg6
I01
sg7
I123
sg8
S'6499.2'
p2097
sa(dp2098
g5
I123
sg6
I01
sg7
I124
sg8
S'6499.32'
p2099
sa(dp2100
g5
I123
sg6
I01
sg7
I124
sg8
S'6499.2'
p2101
sa(dp2102
g5
I123
sg6
I01
sg7
I124
sg8
S'6499.32'
p2103
sa(dp2104
g5
I123
sg6
I01
sg7
I124
sg8
S'6499.2'
p2105
sa(dp2106
g5
I123
sg6
I01
sg7
I124
sg8
S'6499.32'
p2107
sa(dp2108
g5
I123
sg6
I01
sg7
I124
sg8
S'6499.2'
p2109
sa(dp2110
g5
I123
sg6
I01
sg7
I124
sg8
S'6499.32'
p2111
sa(dp2112
g5
I123
sg6
I01
sg7
I124
sg8
S'6499.2'
p2113
sa(dp2114
g5
I123
sg6
I01
sg7
I124
sg8
S'6499.32'
p2115
sa(dp2116
g5
I123
sg6
I01
sg7
I124
sg8
S'6499.2'
p2117
sa(dp2118
g5
I123
sg6
I01
sg7
I124
sg8
S'6499.32'
p2119
sa(dp2120
g5
I123
sg6
I01
sg7
I124
sg8
S'6499.2'
p2121
sa(dp2122
g5
I123
sg6
I01
sg7
I124
sg8
S'6499.08'
p2123
sa(dp2124
g5
I123
sg6
I01
sg7
I124
sg8
S'6499.32'
p2125
sa(dp2126
g5
I123
sg6
I01
sg7
I124
sg8
S'6499.2'
p2127
sa(dp2128
g5
I123
sg6
I01
sg7
I124
sg8
S'6499.32'
p2129
sa(dp2130
g5
I124
sg6
I01
sg7
I124
sg8
S'6499.2'
p2131
sa(dp2132
g5
I124
sg6
I01
sg7
I125
sg8
S'6499.08'
p2133
sa(dp2134
g5
I124
sg6
I01
sg7
I125
sg8
S'6499.2'
p2135
sa(dp2136
g5
I124
sg6
I01
sg7
I125
sg8
S'6499.32'
p2137
sa(dp2138
g5
I124
sg6
I01
sg7
I125
sg8
S'6499.2'
p2139
sa(dp2140
g5
I124
sg6
I01
sg7
I125
sg8
S'6499.32'
p2141
sa(dp2142
g5
I124
sg6
I01
sg7
I125
sg8
S'6499.08'
p2143
sa(dp2144
g5
I124
sg6
I01
sg7
I125
sg8
S'6499.2'
p2145
sa(dp2146
g5
I124
sg6
I01
sg7
I125
sg8
S'6499.32'
p2147
sa(dp2148
g5
I125
sg6
I01
sg7
I125
sg8
S'6499.2'
p2149
sa(dp2150
g5
I125
sg6
I01
sg7
I126
sg8
S'6499.32'
p2151
sa(dp2152
g5
I125
sg6
I01
sg7
I126
sg8
S'6499.2'
p2153
sa(dp2154
g5
I125
sg6
I01
sg7
I126
sg8
S'6499.32'
p2155
sa(dp2156
g5
I125
sg6
I01
sg7
I126
sg8
S'6499.2'
p2157
sa(dp2158
g5
I125
sg6
I01
sg7
I126
sg8
S'6499.32'
p2159
sa(dp2160
g5
I125
sg6
I01
sg7
I126
sg8
S'6499.2'
p2161
sa(dp2162
g5
I125
sg6
I01
sg7
I126
sg8
S'6499.32'
p2163
sa(dp2164
g5
I125
sg6
I01
sg7
I126
sg8
S'6499.2'
p2165
sa(dp2166
g5
I125
sg6
I01
sg7
I126
sg8
S'6499.08'
p2167
sa(dp2168
g5
I125
sg6
I01
sg7
I126
sg8
S'6499.2'
p2169
sa(dp2170
g5
I125
sg6
I01
sg7
I126
sg8
S'6499.08'
p2171
sa(dp2172
g5
I125
sg6
I01
sg7
I126
sg8
S'6499.2'
p2173
sa(dp2174
g5
I125
sg6
I01
sg7
I126
sg8
S'6499.32'
p2175
sa(dp2176
g5
I126
sg6
I01
sg7
I126
sg8
S'6499.2'
p2177
sa(dp2178
g5
I126
sg6
I01
sg7
I127
sg8
S'6499.08'
p2179
sa(dp2180
g5
I126
sg6
I01
sg7
I127
sg8
S'6499.2'
p2181
sa(dp2182
g5
I126
sg6
I01
sg7
I127
sg8
S'6499.08'
p2183
sa(dp2184
g5
I126
sg6
I01
sg7
I127
sg8
S'6499.2'
p2185
sa(dp2186
g5
I126
sg6
I01
sg7
I127
sg8
S'6499.32'
p2187
sa(dp2188
g5
I126
sg6
I01
sg7
I127
sg8
S'6499.2'
p2189
sa(dp2190
g5
I126
sg6
I01
sg7
I127
sg8
S'6499.08'
p2191
sa(dp2192
g5
I127
sg6
I01
sg7
I127
sg8
S'6499.2'
p2193
sa(dp2194
g5
I127
sg6
I01
sg7
I128
sg8
S'6499.32'
p2195
sa(dp2196
g5
I127
sg6
I01
sg7
I128
sg8
S'6499.2'
p2197
sa(dp2198
g5
I127
sg6
I01
sg7
I128
sg8
S'6499.32'
p2199
sa(dp2200
g5
I127
sg6
I01
sg7
I128
sg8
S'6499.2'
p2201
sa(dp2202
g5
I127
sg6
I01
sg7
I128
sg8
S'6499.32'
p2203
sa(dp2204
g5
I128
sg6
I01
sg7
I128
sg8
S'6499.2'
p2205
sa(dp2206
g5
I128
sg6
I01
sg7
I129
sg8
S'6499.32'
p2207
sa(dp2208
g5
I128
sg6
I01
sg7
I129
sg8
S'6499.2'
p2209
sa(dp2210
g5
I128
sg6
I01
sg7
I129
sg8
S'6499.32'
p2211
sa(dp2212
g5
I128
sg6
I01
sg7
I129
sg8
S'6499.2'
p2213
sa(dp2214
g5
I128
sg6
I01
sg7
I129
sg8
S'6499.32'
p2215
sa(dp2216
g5
I128
sg6
I01
sg7
I129
sg8
S'6499.2'
p2217
sa(dp2218
g5
I128
sg6
I01
sg7
I129
sg8
S'6499.32'
p2219
sa(dp2220
g5
I128
sg6
I01
sg7
I129
sg8
S'6499.2'
p2221
sa(dp2222
g5
I128
sg6
I01
sg7
I129
sg8
S'6499.32'
p2223
sa(dp2224
g5
I128
sg6
I01
sg7
I129
sg8
S'6499.2'
p2225
sa(dp2226
g5
I128
sg6
I01
sg7
I129
sg8
S'6499.32'
p2227
sa(dp2228
g5
I128
sg6
I01
sg7
I129
sg8
S'6499.2'
p2229
sa(dp2230
g5
I128
sg6
I01
sg7
I129
sg8
S'6499.32'
p2231
sa(dp2232
g5
I128
sg6
I01
sg7
I129
sg8
S'6499.2'
p2233
sa(dp2234
g5
I128
sg6
I01
sg7
I129
sg8
S'6499.32'
p2235
sa(dp2236
g5
I128
sg6
I01
sg7
I129
sg8
S'6499.2'
p2237
sa(dp2238
g5
I128
sg6
I01
sg7
I129
sg8
S'6499.32'
p2239
sa(dp2240
g5
I128
sg6
I01
sg7
I129
sg8
S'6499.2'
p2241
sa(dp2242
g5
I128
sg6
I01
sg7
I129
sg8
S'6499.32'
p2243
sa(dp2244
g5
I128
sg6
I01
sg7
I129
sg8
S'6499.2'
p2245
sa(dp2246
g5
I128
sg6
I01
sg7
I129
sg8
S'6499.32'
p2247
sa(dp2248
g5
I129
sg6
I01
sg7
I129
sg8
S'6499.2'
p2249
sa(dp2250
g5
I129
sg6
I01
sg7
I130
sg8
S'6499.32'
p2251
sa(dp2252
g5
I129
sg6
I01
sg7
I130
sg8
S'6499.2'
p2253
sa(dp2254
g5
I129
sg6
I01
sg7
I130
sg8
S'6499.32'
p2255
sa(dp2256
g5
I129
sg6
I01
sg7
I130
sg8
S'6499.2'
p2257
sa(dp2258
g5
I129
sg6
I01
sg7
I130
sg8
S'6499.32'
p2259
sa(dp2260
g5
I129
sg6
I01
sg7
I130
sg8
S'6499.2'
p2261
sa(dp2262
g5
I129
sg6
I01
sg7
I130
sg8
S'6499.32'
p2263
sa(dp2264
g5
I129
sg6
I01
sg7
I130
sg8
S'6499.2'
p2265
sa(dp2266
g5
I129
sg6
I01
sg7
I130
sg8
S'6499.32'
p2267
sa(dp2268
g5
I129
sg6
I01
sg7
I130
sg8
S'6499.2'
p2269
sa(dp2270
g5
I129
sg6
I01
sg7
I130
sg8
S'6499.32'
p2271
sa(dp2272
g5
I130
sg6
I01
sg7
I130
sg8
S'6499.2'
p2273
sa(dp2274
g5
I130
sg6
I01
sg7
I131
sg8
S'6499.32'
p2275
sa(dp2276
g5
I130
sg6
I01
sg7
I131
sg8
S'6499.2'
p2277
sa(dp2278
g5
I130
sg6
I01
sg7
I131
sg8
S'6499.32'
p2279
sa(dp2280
g5
I130
sg6
I01
sg7
I131
sg8
S'6499.2'
p2281
sa(dp2282
g5
I130
sg6
I01
sg7
I131
sg8
S'6499.32'
p2283
sa(dp2284
g5
I130
sg6
I01
sg7
I131
sg8
S'6499.2'
p2285
sa(dp2286
g5
I130
sg6
I01
sg7
I131
sg8
S'6499.32'
p2287
sa(dp2288
g5
I130
sg6
I01
sg7
I131
sg8
S'6499.2'
p2289
sa(dp2290
g5
I130
sg6
I01
sg7
I131
sg8
S'6499.32'
p2291
sa(dp2292
g5
I131
sg6
I01
sg7
I131
sg8
S'6499.2'
p2293
sa(dp2294
g5
I131
sg6
I01
sg7
I132
sg8
S'6499.32'
p2295
sa(dp2296
g5
I131
sg6
I01
sg7
I132
sg8
S'6499.2'
p2297
sa(dp2298
g5
I131
sg6
I01
sg7
I132
sg8
S'6499.32'
p2299
sa(dp2300
g5
I131
sg6
I01
sg7
I132
sg8
S'6499.2'
p2301
sa(dp2302
g5
I131
sg6
I01
sg7
I132
sg8
S'6499.32'
p2303
sa(dp2304
g5
I131
sg6
I01
sg7
I132
sg8
S'6499.2'
p2305
sa(dp2306
g5
I131
sg6
I01
sg7
I132
sg8
S'6499.32'
p2307
sa(dp2308
g5
I131
sg6
I01
sg7
I132
sg8
S'6499.2'
p2309
sa(dp2310
g5
I131
sg6
I01
sg7
I132
sg8
S'6499.32'
p2311
sa(dp2312
g5
I131
sg6
I01
sg7
I132
sg8
S'6499.2'
p2313
sa(dp2314
g5
I131
sg6
I01
sg7
I132
sg8
S'6499.32'
p2315
sa(dp2316
g5
I131
sg6
I01
sg7
I132
sg8
S'6499.2'
p2317
sa(dp2318
g5
I131
sg6
I01
sg7
I132
sg8
S'6499.32'
p2319
sa(dp2320
g5
I131
sg6
I01
sg7
I132
sg8
S'6499.2'
p2321
sa(dp2322
g5
I131
sg6
I01
sg7
I132
sg8
S'6499.32'
p2323
sa(dp2324
g5
I131
sg6
I01
sg7
I132
sg8
S'6499.2'
p2325
sa(dp2326
g5
I131
sg6
I01
sg7
I132
sg8
S'6499.32'
p2327
sa(dp2328
g5
I131
sg6
I01
sg7
I132
sg8
S'6499.2'
p2329
sa(dp2330
g5
I131
sg6
I01
sg7
I132
sg8
S'6499.32'
p2331
sa(dp2332
g5
I132
sg6
I01
sg7
I132
sg8
S'6499.2'
p2333
sa(dp2334
g5
I132
sg6
I01
sg7
I133
sg8
S'6499.32'
p2335
sa(dp2336
g5
I132
sg6
I01
sg7
I133
sg8
S'6499.2'
p2337
sa(dp2338
g5
I132
sg6
I01
sg7
I133
sg8
S'6499.32'
p2339
sa(dp2340
g5
I132
sg6
I01
sg7
I133
sg8
S'6499.2'
p2341
sa(dp2342
g5
I132
sg6
I01
sg7
I133
sg8
S'6499.32'
p2343
sa(dp2344
g5
I132
sg6
I01
sg7
I133
sg8
S'6499.2'
p2345
sa(dp2346
g5
I132
sg6
I01
sg7
I133
sg8
S'6499.08'
p2347
sa(dp2348
g5
I132
sg6
I01
sg7
I133
sg8
S'6499.2'
p2349
sa(dp2350
g5
I132
sg6
I01
sg7
I133
sg8
S'6499.32'
p2351
sa(dp2352
g5
I132
sg6
I01
sg7
I133
sg8
S'6499.2'
p2353
sa(dp2354
g5
I132
sg6
I01
sg7
I133
sg8
S'6499.08'
p2355
sa(dp2356
g5
I132
sg6
I01
sg7
I133
sg8
S'6499.2'
p2357
sa(dp2358
g5
I132
sg6
I01
sg7
I133
sg8
S'6499.32'
p2359
sa(dp2360
g5
I133
sg6
I01
sg7
I133
sg8
S'6499.2'
p2361
sa(dp2362
g5
I133
sg6
I01
sg7
I134
sg8
S'6499.32'
p2363
sa(dp2364
g5
I133
sg6
I01
sg7
I134
sg8
S'6499.2'
p2365
sa(dp2366
g5
I133
sg6
I01
sg7
I134
sg8
S'6499.32'
p2367
sa(dp2368
g5
I133
sg6
I01
sg7
I134
sg8
S'6499.2'
p2369
sa(dp2370
g5
I133
sg6
I01
sg7
I134
sg8
S'6499.32'
p2371
sa(dp2372
g5
I133
sg6
I01
sg7
I134
sg8
S'6499.08'
p2373
sa(dp2374
g5
I133
sg6
I01
sg7
I134
sg8
S'6499.2'
p2375
sa(dp2376
g5
I133
sg6
I01
sg7
I134
sg8
S'6499.08'
p2377
sa(dp2378
g5
I134
sg6
I01
sg7
I134
sg8
S'6499.2'
p2379
sa(dp2380
g5
I134
sg6
I01
sg7
I135
sg8
S'6499.32'
p2381
sa(dp2382
g5
I134
sg6
I01
sg7
I135
sg8
S'6499.2'
p2383
sa(dp2384
g5
I134
sg6
I01
sg7
I135
sg8
S'6499.32'
p2385
sa(dp2386
g5
I134
sg6
I01
sg7
I135
sg8
S'6499.2'
p2387
sa(dp2388
g5
I134
sg6
I01
sg7
I135
sg8
S'6499.32'
p2389
sa(dp2390
g5
I134
sg6
I01
sg7
I135
sg8
S'6499.2'
p2391
sa(dp2392
g5
I134
sg6
I01
sg7
I135
sg8
S'6499.32'
p2393
sa(dp2394
g5
I134
sg6
I01
sg7
I135
sg8
S'6499.2'
p2395
sa(dp2396
g5
I134
sg6
I01
sg7
I135
sg8
S'6499.32'
p2397
sa(dp2398
g5
I134
sg6
I01
sg7
I135
sg8
S'6499.2'
p2399
sa(dp2400
g5
I134
sg6
I01
sg7
I135
sg8
S'6499.32'
p2401
sa(dp2402
g5
I134
sg6
I01
sg7
I135
sg8
S'6499.2'
p2403
sa(dp2404
g5
I134
sg6
I01
sg7
I135
sg8
S'6499.32'
p2405
sa(dp2406
g5
I134
sg6
I01
sg7
I135
sg8
S'6499.2'
p2407
sa(dp2408
g5
I134
sg6
I01
sg7
I135
sg8
S'6499.32'
p2409
sa(dp2410
g5
I134
sg6
I01
sg7
I135
sg8
S'6499.2'
p2411
sa(dp2412
g5
I134
sg6
I01
sg7
I135
sg8
S'6499.32'
p2413
sa(dp2414
g5
I134
sg6
I01
sg7
I135
sg8
S'6499.2'
p2415
sa(dp2416
g5
I134
sg6
I01
sg7
I135
sg8
S'6499.32'
p2417
sa(dp2418
g5
I134
sg6
I01
sg7
I135
sg8
S'6499.2'
p2419
sa(dp2420
g5
I134
sg6
I01
sg7
I135
sg8
S'6499.32'
p2421
sa(dp2422
g5
I134
sg6
I01
sg7
I135
sg8
S'6499.2'
p2423
sa(dp2424
g5
I134
sg6
I01
sg7
I135
sg8
S'6499.32'
p2425
sa(dp2426
g5
I134
sg6
I01
sg7
I135
sg8
S'6499.2'
p2427
sa(dp2428
g5
I134
sg6
I01
sg7
I135
sg8
S'6499.32'
p2429
sa(dp2430
g5
I135
sg6
I01
sg7
I135
sg8
S'6499.2'
p2431
sa(dp2432
g5
I135
sg6
I01
sg7
I136
sg8
S'6499.32'
p2433
sa(dp2434
g5
I135
sg6
I01
sg7
I136
sg8
S'6499.2'
p2435
sa(dp2436
g5
I135
sg6
I01
sg7
I136
sg8
S'6499.32'
p2437
sa(dp2438
g5
I135
sg6
I01
sg7
I136
sg8
S'6499.2'
p2439
sa(dp2440
g5
I135
sg6
I01
sg7
I136
sg8
S'6499.32'
p2441
sa(dp2442
g5
I135
sg6
I01
sg7
I136
sg8
S'6499.2'
p2443
sa(dp2444
g5
I135
sg6
I01
sg7
I136
sg8
S'6499.32'
p2445
sa(dp2446
g5
I135
sg6
I01
sg7
I136
sg8
S'6499.2'
p2447
sa(dp2448
g5
I135
sg6
I01
sg7
I136
sg8
S'6499.32'
p2449
sa(dp2450
g5
I135
sg6
I01
sg7
I136
sg8
S'6499.2'
p2451
sa(dp2452
g5
I135
sg6
I01
sg7
I136
sg8
S'6499.32'
p2453
sa(dp2454
g5
I135
sg6
I01
sg7
I136
sg8
S'6499.2'
p2455
sa(dp2456
g5
I136
sg6
I01
sg7
I136
sg8
S'6499.32'
p2457
sa(dp2458
g5
I136
sg6
I01
sg7
I137
sg8
S'6499.2'
p2459
sa(dp2460
g5
I136
sg6
I01
sg7
I137
sg8
S'6499.32'
p2461
sa(dp2462
g5
I136
sg6
I01
sg7
I137
sg8
S'6499.2'
p2463
sa(dp2464
g5
I136
sg6
I01
sg7
I137
sg8
S'6499.32'
p2465
sa(dp2466
g5
I136
sg6
I01
sg7
I137
sg8
S'6499.2'
p2467
sa(dp2468
g5
I136
sg6
I01
sg7
I137
sg8
S'6499.32'
p2469
sa(dp2470
g5
I136
sg6
I01
sg7
I137
sg8
S'6499.2'
p2471
sa(dp2472
g5
I136
sg6
I01
sg7
I137
sg8
S'6499.32'
p2473
sa(dp2474
g5
I136
sg6
I01
sg7
I137
sg8
S'6499.2'
p2475
sa(dp2476
g5
I136
sg6
I01
sg7
I137
sg8
S'6499.32'
p2477
sa(dp2478
g5
I136
sg6
I01
sg7
I137
sg8
S'6499.2'
p2479
sa(dp2480
g5
I136
sg6
I01
sg7
I137
sg8
S'6499.32'
p2481
sa(dp2482
g5
I136
sg6
I01
sg7
I137
sg8
S'6499.2'
p2483
sa(dp2484
g5
I136
sg6
I01
sg7
I137
sg8
S'6499.32'
p2485
sa(dp2486
g5
I136
sg6
I01
sg7
I137
sg8
S'6499.2'
p2487
sa(dp2488
g5
I136
sg6
I01
sg7
I137
sg8
S'6499.32'
p2489
sa(dp2490
g5
I136
sg6
I01
sg7
I137
sg8
S'6499.2'
p2491
sa(dp2492
g5
I136
sg6
I01
sg7
I137
sg8
S'6499.32'
p2493
sa(dp2494
g5
I137
sg6
I01
sg7
I137
sg8
S'6499.2'
p2495
sa(dp2496
g5
I137
sg6
I01
sg7
I138
sg8
S'6499.32'
p2497
sa(dp2498
g5
I137
sg6
I01
sg7
I138
sg8
S'6499.2'
p2499
sa(dp2500
g5
I137
sg6
I01
sg7
I138
sg8
S'6499.32'
p2501
sa(dp2502
g5
I137
sg6
I01
sg7
I138
sg8
S'6499.2'
p2503
sa(dp2504
g5
I137
sg6
I01
sg7
I138
sg8
S'6499.08'
p2505
sa(dp2506
g5
I137
sg6
I01
sg7
I138
sg8
S'6499.2'
p2507
sa(dp2508
g5
I137
sg6
I01
sg7
I138
sg8
S'6499.32'
p2509
sa(dp2510
g5
I137
sg6
I01
sg7
I138
sg8
S'6499.2'
p2511
sa(dp2512
g5
I137
sg6
I01
sg7
I138
sg8
S'6499.32'
p2513
sa(dp2514
g5
I137
sg6
I01
sg7
I138
sg8
S'6499.2'
p2515
sa(dp2516
g5
I137
sg6
I01
sg7
I138
sg8
S'6499.08'
p2517
sa(dp2518
g5
I137
sg6
I01
sg7
I138
sg8
S'6499.2'
p2519
sa(dp2520
g5
I137
sg6
I01
sg7
I138
sg8
S'6499.32'
p2521
sa(dp2522
g5
I137
sg6
I01
sg7
I138
sg8
S'6499.2'
p2523
sa(dp2524
g5
I137
sg6
I01
sg7
I138
sg8
S'6499.08'
p2525
sa(dp2526
g5
I137
sg6
I01
sg7
I138
sg8
S'6499.2'
p2527
sa(dp2528
g5
I137
sg6
I01
sg7
I138
sg8
S'6499.32'
p2529
sa(dp2530
g5
I138
sg6
I01
sg7
I138
sg8
S'6499.2'
p2531
sa(dp2532
g5
I138
sg6
I01
sg7
I139
sg8
S'6499.32'
p2533
sa(dp2534
g5
I138
sg6
I01
sg7
I139
sg8
S'6499.2'
p2535
sa(dp2536
g5
I138
sg6
I01
sg7
I139
sg8
S'6499.32'
p2537
sa(dp2538
g5
I138
sg6
I01
sg7
I139
sg8
S'6499.2'
p2539
sa(dp2540
g5
I138
sg6
I01
sg7
I139
sg8
S'6499.32'
p2541
sa(dp2542
g5
I138
sg6
I01
sg7
I139
sg8
S'6499.2'
p2543
sa(dp2544
g5
I138
sg6
I01
sg7
I139
sg8
S'6499.32'
p2545
sa(dp2546
g5
I138
sg6
I01
sg7
I139
sg8
S'6499.2'
p2547
sa(dp2548
g5
I138
sg6
I01
sg7
I139
sg8
S'6499.32'
p2549
sa(dp2550
g5
I138
sg6
I01
sg7
I139
sg8
S'6499.2'
p2551
sa(dp2552
g5
I138
sg6
I01
sg7
I139
sg8
S'6499.32'
p2553
sa(dp2554
g5
I139
sg6
I01
sg7
I139
sg8
S'6499.2'
p2555
sa(dp2556
g5
I139
sg6
I01
sg7
I140
sg8
S'6499.32'
p2557
sa(dp2558
g5
I139
sg6
I01
sg7
I140
sg8
S'6499.2'
p2559
sa(dp2560
g5
I139
sg6
I01
sg7
I140
sg8
S'6499.32'
p2561
sa(dp2562
g5
I140
sg6
I01
sg7
I140
sg8
S'6499.2'
p2563
sa(dp2564
g5
I140
sg6
I01
sg7
I141
sg8
S'6499.32'
p2565
sa(dp2566
g5
I140
sg6
I01
sg7
I141
sg8
S'6499.2'
p2567
sa(dp2568
g5
I140
sg6
I01
sg7
I141
sg8
S'6499.08'
p2569
sa(dp2570
g5
I140
sg6
I01
sg7
I141
sg8
S'6499.2'
p2571
sa(dp2572
g5
I140
sg6
I01
sg7
I141
sg8
S'6499.32'
p2573
sa(dp2574
g5
I140
sg6
I01
sg7
I141
sg8
S'6499.2'
p2575
sa(dp2576
g5
I140
sg6
I01
sg7
I141
sg8
S'6499.32'
p2577
sa(dp2578
g5
I140
sg6
I01
sg7
I141
sg8
S'6499.2'
p2579
sa(dp2580
g5
I140
sg6
I01
sg7
I141
sg8
S'6499.32'
p2581
sa(dp2582
g5
I140
sg6
I01
sg7
I141
sg8
S'6499.2'
p2583
sa(dp2584
g5
I140
sg6
I01
sg7
I141
sg8
S'6499.32'
p2585
sa(dp2586
g5
I141
sg6
I01
sg7
I141
sg8
S'6499.2'
p2587
sa(dp2588
g5
I141
sg6
I01
sg7
I142
sg8
S'6499.32'
p2589
sa(dp2590
g5
I141
sg6
I01
sg7
I142
sg8
S'6499.2'
p2591
sa(dp2592
g5
I141
sg6
I01
sg7
I142
sg8
S'6499.32'
p2593
sa(dp2594
g5
I141
sg6
I01
sg7
I142
sg8
S'6499.2'
p2595
sa(dp2596
g5
I141
sg6
I01
sg7
I142
sg8
S'6499.32'
p2597
sa(dp2598
g5
I141
sg6
I01
sg7
I142
sg8
S'6499.2'
p2599
sa(dp2600
g5
I141
sg6
I01
sg7
I142
sg8
S'6499.32'
p2601
sa(dp2602
g5
I141
sg6
I01
sg7
I142
sg8
S'6499.2'
p2603
sa(dp2604
g5
I141
sg6
I01
sg7
I142
sg8
S'6499.32'
p2605
sa(dp2606
g5
I141
sg6
I01
sg7
I142
sg8
S'6499.2'
p2607
sa(dp2608
g5
I141
sg6
I01
sg7
I142
sg8
S'6499.32'
p2609
sa(dp2610
g5
I142
sg6
I01
sg7
I142
sg8
S'6499.2'
p2611
sa(dp2612
g5
I142
sg6
I01
sg7
I143
sg8
S'6499.32'
p2613
sa(dp2614
g5
I142
sg6
I01
sg7
I143
sg8
S'6499.2'
p2615
sa(dp2616
g5
I142
sg6
I01
sg7
I143
sg8
S'6499.32'
p2617
sa(dp2618
g5
I142
sg6
I01
sg7
I143
sg8
S'6499.2'
p2619
sa(dp2620
g5
I142
sg6
I01
sg7
I143
sg8
S'6499.32'
p2621
sa(dp2622
g5
I142
sg6
I01
sg7
I143
sg8
S'6499.2'
p2623
sa(dp2624
g5
I142
sg6
I01
sg7
I143
sg8
S'6499.32'
p2625
sa(dp2626
g5
I142
sg6
I01
sg7
I143
sg8
S'6499.2'
p2627
sa(dp2628
g5
I142
sg6
I01
sg7
I143
sg8
S'6499.32'
p2629
sa(dp2630
g5
I142
sg6
I01
sg7
I143
sg8
S'6499.2'
p2631
sa(dp2632
g5
I142
sg6
I01
sg7
I143
sg8
S'6499.32'
p2633
sa(dp2634
g5
I143
sg6
I01
sg7
I143
sg8
S'6499.2'
p2635
sa(dp2636
g5
I143
sg6
I01
sg7
I144
sg8
S'6499.32'
p2637
sa(dp2638
g5
I143
sg6
I01
sg7
I144
sg8
S'6499.2'
p2639
sa(dp2640
g5
I143
sg6
I01
sg7
I144
sg8
S'6499.32'
p2641
sa(dp2642
g5
I143
sg6
I01
sg7
I144
sg8
S'6499.2'
p2643
sa(dp2644
g5
I143
sg6
I01
sg7
I144
sg8
S'6499.32'
p2645
sa(dp2646
g5
I143
sg6
I01
sg7
I144
sg8
S'6499.2'
p2647
sa(dp2648
g5
I143
sg6
I01
sg7
I144
sg8
S'6499.32'
p2649
sa(dp2650
g5
I143
sg6
I01
sg7
I144
sg8
S'6499.2'
p2651
sa(dp2652
g5
I143
sg6
I01
sg7
I144
sg8
S'6499.32'
p2653
sa(dp2654
g5
I143
sg6
I01
sg7
I144
sg8
S'6499.08'
p2655
sa(dp2656
g5
I143
sg6
I01
sg7
I144
sg8
S'6499.2'
p2657
sa(dp2658
g5
I143
sg6
I01
sg7
I144
sg8
S'6499.32'
p2659
sa(dp2660
g5
I143
sg6
I01
sg7
I144
sg8
S'6499.2'
p2661
sa(dp2662
g5
I143
sg6
I01
sg7
I144
sg8
S'6499.08'
p2663
sa(dp2664
g5
I143
sg6
I01
sg7
I144
sg8
S'6499.2'
p2665
sa(dp2666
g5
I143
sg6
I01
sg7
I144
sg8
S'6499.08'
p2667
sa(dp2668
g5
I144
sg6
I01
sg7
I144
sg8
S'6499.2'
p2669
sa(dp2670
g5
I144
sg6
I01
sg7
I145
sg8
S'6499.08'
p2671
sa(dp2672
g5
I144
sg6
I01
sg7
I145
sg8
S'6499.2'
p2673
sa(dp2674
g5
I144
sg6
I01
sg7
I145
sg8
S'6499.32'
p2675
sa(dp2676
g5
I144
sg6
I01
sg7
I145
sg8
S'6499.2'
p2677
sa(dp2678
g5
I144
sg6
I01
sg7
I145
sg8
S'6499.32'
p2679
sa(dp2680
g5
I144
sg6
I01
sg7
I145
sg8
S'6499.2'
p2681
sa(dp2682
g5
I144
sg6
I01
sg7
I145
sg8
S'6499.32'
p2683
sa(dp2684
g5
I144
sg6
I01
sg7
I145
sg8
S'6499.2'
p2685
sa(dp2686
g5
I144
sg6
I01
sg7
I145
sg8
S'6499.32'
p2687
sa(dp2688
g5
I145
sg6
I01
sg7
I145
sg8
S'6499.2'
p2689
sa(dp2690
g5
I145
sg6
I01
sg7
I146
sg8
S'6499.32'
p2691
sa(dp2692
g5
I145
sg6
I01
sg7
I146
sg8
S'6499.2'
p2693
sa(dp2694
g5
I145
sg6
I01
sg7
I146
sg8
S'6499.32'
p2695
sa(dp2696
g5
I145
sg6
I01
sg7
I146
sg8
S'6499.2'
p2697
sa(dp2698
g5
I145
sg6
I01
sg7
I146
sg8
S'6499.32'
p2699
sa(dp2700
g5
I145
sg6
I01
sg7
I146
sg8
S'6499.2'
p2701
sa(dp2702
g5
I145
sg6
I01
sg7
I146
sg8
S'6499.32'
p2703
sa(dp2704
g5
I145
sg6
I01
sg7
I146
sg8
S'6499.2'
p2705
sa(dp2706
g5
I145
sg6
I01
sg7
I146
sg8
S'6499.32'
p2707
sa(dp2708
g5
I145
sg6
I01
sg7
I146
sg8
S'6499.2'
p2709
sa(dp2710
g5
I145
sg6
I01
sg7
I146
sg8
S'6499.32'
p2711
sa(dp2712
g5
I145
sg6
I01
sg7
I146
sg8
S'6499.2'
p2713
sa(dp2714
g5
I145
sg6
I01
sg7
I146
sg8
S'6499.32'
p2715
sa(dp2716
g5
I145
sg6
I01
sg7
I146
sg8
S'6499.2'
p2717
sa(dp2718
g5
I145
sg6
I01
sg7
I146
sg8
S'6499.32'
p2719
sa(dp2720
g5
I145
sg6
I01
sg7
I146
sg8
S'6499.2'
p2721
sa(dp2722
g5
I145
sg6
I01
sg7
I146
sg8
S'6499.32'
p2723
sa(dp2724
g5
I145
sg6
I01
sg7
I146
sg8
S'6499.08'
p2725
sa(dp2726
g5
I146
sg6
I01
sg7
I146
sg8
S'6499.2'
p2727
sa(dp2728
g5
I146
sg6
I01
sg7
I147
sg8
S'6499.32'
p2729
sa(dp2730
g5
I146
sg6
I01
sg7
I147
sg8
S'6499.2'
p2731
sa(dp2732
g5
I146
sg6
I01
sg7
I147
sg8
S'6499.08'
p2733
sa(dp2734
g5
I146
sg6
I01
sg7
I147
sg8
S'6499.2'
p2735
sa(dp2736
g5
I146
sg6
I01
sg7
I147
sg8
S'6499.08'
p2737
sa(dp2738
g5
I146
sg6
I01
sg7
I147
sg8
S'6499.2'
p2739
sa(dp2740
g5
I146
sg6
I01
sg7
I147
sg8
S'6499.32'
p2741
sa(dp2742
g5
I146
sg6
I01
sg7
I147
sg8
S'6499.2'
p2743
sa(dp2744
g5
I146
sg6
I01
sg7
I147
sg8
S'6499.32'
p2745
sa(dp2746
g5
I147
sg6
I01
sg7
I147
sg8
S'6499.2'
p2747
sa(dp2748
g5
I147
sg6
I01
sg7
I148
sg8
S'6499.32'
p2749
sa(dp2750
g5
I147
sg6
I01
sg7
I148
sg8
S'6499.2'
p2751
sa(dp2752
g5
I147
sg6
I01
sg7
I148
sg8
S'6499.08'
p2753
sa(dp2754
g5
I147
sg6
I01
sg7
I148
sg8
S'6499.2'
p2755
sa(dp2756
g5
I147
sg6
I01
sg7
I148
sg8
S'6499.32'
p2757
sa(dp2758
g5
I147
sg6
I01
sg7
I148
sg8
S'6499.2'
p2759
sa(dp2760
g5
I147
sg6
I01
sg7
I148
sg8
S'6499.32'
p2761
sa(dp2762
g5
I147
sg6
I01
sg7
I148
sg8
S'6499.2'
p2763
sa(dp2764
g5
I147
sg6
I01
sg7
I148
sg8
S'6499.32'
p2765
sa(dp2766
g5
I147
sg6
I01
sg7
I148
sg8
S'6499.2'
p2767
sa(dp2768
g5
I147
sg6
I01
sg7
I148
sg8
S'6499.32'
p2769
sa(dp2770
g5
I148
sg6
I01
sg7
I148
sg8
S'6499.2'
p2771
sa(dp2772
g5
I148
sg6
I01
sg7
I149
sg8
S'6499.32'
p2773
sa(dp2774
g5
I148
sg6
I01
sg7
I149
sg8
S'6499.2'
p2775
sa(dp2776
g5
I148
sg6
I01
sg7
I149
sg8
S'6499.32'
p2777
sa(dp2778
g5
I148
sg6
I01
sg7
I149
sg8
S'6499.2'
p2779
sa(dp2780
g5
I148
sg6
I01
sg7
I149
sg8
S'6499.32'
p2781
sa(dp2782
g5
I148
sg6
I01
sg7
I149
sg8
S'6499.2'
p2783
sa(dp2784
g5
I148
sg6
I01
sg7
I149
sg8
S'6499.32'
p2785
sa(dp2786
g5
I148
sg6
I01
sg7
I149
sg8
S'6499.2'
p2787
sa(dp2788
g5
I148
sg6
I01
sg7
I149
sg8
S'6499.32'
p2789
sa(dp2790
g5
I149
sg6
I01
sg7
I149
sg8
S'6499.2'
p2791
sa(dp2792
g5
I149
sg6
I01
sg7
I150
sg8
S'6499.32'
p2793
sa(dp2794
g5
I149
sg6
I01
sg7
I150
sg8
S'6499.2'
p2795
sa(dp2796
g5
I149
sg6
I01
sg7
I150
sg8
S'6499.32'
p2797
sa(dp2798
g5
I149
sg6
I01
sg7
I150
sg8
S'6499.2'
p2799
sa(dp2800
g5
I149
sg6
I01
sg7
I150
sg8
S'6499.32'
p2801
sa(dp2802
g5
I149
sg6
I01
sg7
I150
sg8
S'6499.2'
p2803
sa(dp2804
g5
I149
sg6
I01
sg7
I150
sg8
S'6499.32'
p2805
sa(dp2806
g5
I149
sg6
I01
sg7
I150
sg8
S'6499.2'
p2807
sa(dp2808
g5
I149
sg6
I01
sg7
I150
sg8
S'6499.32'
p2809
sa(dp2810
g5
I149
sg6
I01
sg7
I150
sg8
S'6499.2'
p2811
sa(dp2812
g5
I149
sg6
I01
sg7
I150
sg8
S'6499.32'
p2813
sa(dp2814
g5
I149
sg6
I01
sg7
I150
sg8
S'6499.2'
p2815
sa(dp2816
g5
I149
sg6
I01
sg7
I150
sg8
S'6499.32'
p2817
sa(dp2818
g5
I150
sg6
I01
sg7
I150
sg8
S'6499.2'
p2819
sa(dp2820
g5
I150
sg6
I01
sg7
I151
sg8
S'6499.32'
p2821
sa(dp2822
g5
I150
sg6
I01
sg7
I151
sg8
S'6499.2'
p2823
sa(dp2824
g5
I150
sg6
I01
sg7
I151
sg8
S'6499.32'
p2825
sa(dp2826
g5
I150
sg6
I01
sg7
I151
sg8
S'6499.2'
p2827
sa(dp2828
g5
I150
sg6
I01
sg7
I151
sg8
S'6499.32'
p2829
sa(dp2830
g5
I150
sg6
I01
sg7
I151
sg8
S'6499.2'
p2831
sa(dp2832
g5
I150
sg6
I01
sg7
I151
sg8
S'6499.32'
p2833
sa(dp2834
g5
I151
sg6
I01
sg7
I151
sg8
S'6499.2'
p2835
sa(dp2836
g5
I151
sg6
I01
sg7
I152
sg8
S'6499.32'
p2837
sa(dp2838
g5
I153
sg6
I01
sg7
I152
sg8
S'6499.2'
p2839
sa(dp2840
g5
I153
sg6
I01
sg7
I154
sg8
S'6499.08'
p2841
sa(dp2842
g5
I153
sg6
I01
sg7
I154
sg8
S'6499.2'
p2843
sa(dp2844
g5
I153
sg6
I01
sg7
I154
sg8
S'6499.08'
p2845
sa(dp2846
g5
I153
sg6
I01
sg7
I154
sg8
S'6499.2'
p2847
sa(dp2848
g5
I153
sg6
I01
sg7
I154
sg8
S'6499.32'
p2849
sa(dp2850
g5
I153
sg6
I01
sg7
I154
sg8
S'6499.2'
p2851
sa(dp2852
g5
I153
sg6
I01
sg7
I154
sg8
S'6499.32'
p2853
sa(dp2854
g5
I153
sg6
I01
sg7
I154
sg8
S'6499.2'
p2855
sa(dp2856
g5
I153
sg6
I01
sg7
I154
sg8
S'6499.08'
p2857
sa(dp2858
g5
I154
sg6
I01
sg7
I154
sg8
S'6499.2'
p2859
sa(dp2860
g5
I154
sg6
I01
sg7
I155
sg8
S'6499.08'
p2861
sa(dp2862
g5
I154
sg6
I01
sg7
I155
sg8
S'6499.2'
p2863
sa(dp2864
g5
I154
sg6
I01
sg7
I155
sg8
S'6499.08'
p2865
sa(dp2866
g5
I154
sg6
I01
sg7
I155
sg8
S'6499.2'
p2867
sa(dp2868
g5
I154
sg6
I01
sg7
I155
sg8
S'6499.32'
p2869
sa(dp2870
g5
I155
sg6
I01
sg7
I155
sg8
S'6499.2'
p2871
sa(dp2872
g5
I155
sg6
I01
sg7
I156
sg8
S'6499.32'
p2873
sa(dp2874
g5
I155
sg6
I01
sg7
I156
sg8
S'6499.2'
p2875
sa(dp2876
g5
I155
sg6
I01
sg7
I156
sg8
S'6499.32'
p2877
sa(dp2878
g5
I155
sg6
I01
sg7
I156
sg8
S'6499.2'
p2879
sa(dp2880
g5
I155
sg6
I01
sg7
I156
sg8
S'6499.32'
p2881
sa(dp2882
g5
I155
sg6
I01
sg7
I156
sg8
S'6499.2'
p2883
sa(dp2884
g5
I155
sg6
I01
sg7
I156
sg8
S'6499.32'
p2885
sa(dp2886
g5
I155
sg6
I01
sg7
I156
sg8
S'6499.2'
p2887
sa(dp2888
g5
I155
sg6
I01
sg7
I156
sg8
S'6499.32'
p2889
sa(dp2890
g5
I155
sg6
I01
sg7
I156
sg8
S'6499.2'
p2891
sa(dp2892
g5
I155
sg6
I01
sg7
I156
sg8
S'6499.32'
p2893
sa(dp2894
g5
I155
sg6
I01
sg7
I156
sg8
S'6499.2'
p2895
sa(dp2896
g5
I155
sg6
I01
sg7
I156
sg8
S'6499.32'
p2897
sa(dp2898
g5
I155
sg6
I01
sg7
I156
sg8
S'6499.2'
p2899
sa(dp2900
g5
I155
sg6
I01
sg7
I156
sg8
S'6499.32'
p2901
sa(dp2902
g5
I155
sg6
I01
sg7
I156
sg8
S'6499.2'
p2903
sa(dp2904
g5
I155
sg6
I01
sg7
I156
sg8
S'6499.32'
p2905
sa(dp2906
g5
I156
sg6
I01
sg7
I156
sg8
S'6499.2'
p2907
sa(dp2908
g5
I156
sg6
I01
sg7
I157
sg8
S'6499.32'
p2909
sa(dp2910
g5
I156
sg6
I01
sg7
I157
sg8
S'6499.2'
p2911
sa(dp2912
g5
I156
sg6
I01
sg7
I157
sg8
S'6499.32'
p2913
sa(dp2914
g5
I156
sg6
I01
sg7
I157
sg8
S'6499.2'
p2915
sa(dp2916
g5
I156
sg6
I01
sg7
I157
sg8
S'6499.32'
p2917
sa(dp2918
g5
I156
sg6
I01
sg7
I157
sg8
S'6499.2'
p2919
sa(dp2920
g5
I156
sg6
I01
sg7
I157
sg8
S'6499.32'
p2921
sa(dp2922
g5
I156
sg6
I01
sg7
I157
sg8
S'6499.2'
p2923
sa(dp2924
g5
I156
sg6
I01
sg7
I157
sg8
S'6499.32'
p2925
sa(dp2926
g5
I156
sg6
I01
sg7
I157
sg8
S'6499.2'
p2927
sa(dp2928
g5
I156
sg6
I01
sg7
I157
sg8
S'6499.32'
p2929
sa(dp2930
g5
I156
sg6
I01
sg7
I157
sg8
S'6499.2'
p2931
sa(dp2932
g5
I156
sg6
I01
sg7
I157
sg8
S'6499.32'
p2933
sa(dp2934
g5
I156
sg6
I01
sg7
I157
sg8
S'6499.2'
p2935
sa(dp2936
g5
I156
sg6
I01
sg7
I157
sg8
S'6499.32'
p2937
sa(dp2938
g5
I156
sg6
I01
sg7
I157
sg8
S'6499.2'
p2939
sa(dp2940
g5
I156
sg6
I01
sg7
I157
sg8
S'6499.32'
p2941
sa(dp2942
g5
I156
sg6
I01
sg7
I157
sg8
S'6499.2'
p2943
sa(dp2944
g5
I156
sg6
I01
sg7
I157
sg8
S'6499.32'
p2945
sa(dp2946
g5
I157
sg6
I01
sg7
I157
sg8
S'6499.2'
p2947
sa(dp2948
g5
I157
sg6
I01
sg7
I158
sg8
S'6499.32'
p2949
sa(dp2950
g5
I157
sg6
I01
sg7
I158
sg8
S'6499.2'
p2951
sa(dp2952
g5
I157
sg6
I01
sg7
I158
sg8
S'6499.32'
p2953
sa(dp2954
g5
I157
sg6
I01
sg7
I158
sg8
S'6499.2'
p2955
sa(dp2956
g5
I157
sg6
I01
sg7
I158
sg8
S'6499.32'
p2957
sa(dp2958
g5
I157
sg6
I01
sg7
I158
sg8
S'6499.2'
p2959
sa(dp2960
g5
I157
sg6
I01
sg7
I158
sg8
S'6499.32'
p2961
sa(dp2962
g5
I158
sg6
I01
sg7
I158
sg8
S'6499.2'
p2963
sa(dp2964
g5
I158
sg6
I01
sg7
I159
sg8
S'6499.32'
p2965
sa(dp2966
g5
I158
sg6
I01
sg7
I159
sg8
S'6499.2'
p2967
sa(dp2968
g5
I158
sg6
I01
sg7
I159
sg8
S'6499.32'
p2969
sa(dp2970
g5
I158
sg6
I01
sg7
I159
sg8
S'6499.2'
p2971
sa(dp2972
g5
I158
sg6
I01
sg7
I159
sg8
S'6499.32'
p2973
sa(dp2974
g5
I158
sg6
I01
sg7
I159
sg8
S'6499.2'
p2975
sa(dp2976
g5
I158
sg6
I01
sg7
I159
sg8
S'6499.32'
p2977
sa(dp2978
g5
I158
sg6
I01
sg7
I159
sg8
S'6499.2'
p2979
sa(dp2980
g5
I158
sg6
I01
sg7
I159
sg8
S'6499.32'
p2981
sa(dp2982
g5
I158
sg6
I01
sg7
I159
sg8
S'6499.2'
p2983
sa(dp2984
g5
I158
sg6
I01
sg7
I159
sg8
S'6499.32'
p2985
sa(dp2986
g5
I159
sg6
I01
sg7
I159
sg8
S'6499.2'
p2987
sa(dp2988
g5
I159
sg6
I01
sg7
I160
sg8
S'6499.32'
p2989
sa(dp2990
g5
I159
sg6
I01
sg7
I160
sg8
S'6499.2'
p2991
sa(dp2992
g5
I159
sg6
I01
sg7
I160
sg8
S'6499.32'
p2993
sa(dp2994
g5
I159
sg6
I01
sg7
I160
sg8
S'6499.2'
p2995
sa(dp2996
g5
I159
sg6
I01
sg7
I160
sg8
S'6499.32'
p2997
sa(dp2998
g5
I159
sg6
I01
sg7
I160
sg8
S'6499.2'
p2999
sa(dp3000
g5
I159
sg6
I01
sg7
I160
sg8
S'6499.32'
p3001
sa(dp3002
g5
I159
sg6
I01
sg7
I160
sg8
S'6499.08'
p3003
sa(dp3004
g5
I159
sg6
I01
sg7
I160
sg8
S'6499.2'
p3005
sa(dp3006
g5
I159
sg6
I01
sg7
I160
sg8
S'6499.32'
p3007
sa(dp3008
g5
I160
sg6
I01
sg7
I160
sg8
S'6499.2'
p3009
sa(dp3010
g5
I160
sg6
I01
sg7
I161
sg8
S'6499.32'
p3011
sa(dp3012
g5
I160
sg6
I01
sg7
I161
sg8
S'6499.2'
p3013
sa(dp3014
g5
I160
sg6
I01
sg7
I161
sg8
S'6499.08'
p3015
sa(dp3016
g5
I160
sg6
I01
sg7
I161
sg8
S'6499.2'
p3017
sa(dp3018
g5
I160
sg6
I01
sg7
I161
sg8
S'6499.32'
p3019
sa(dp3020
g5
I160
sg6
I01
sg7
I161
sg8
S'6499.2'
p3021
sa(dp3022
g5
I160
sg6
I01
sg7
I161
sg8
S'6499.08'
p3023
sa(dp3024
g5
I160
sg6
I01
sg7
I161
sg8
S'6499.2'
p3025
sa(dp3026
g5
I160
sg6
I01
sg7
I161
sg8
S'6499.08'
p3027
sa(dp3028
g5
I161
sg6
I01
sg7
I161
sg8
S'6499.2'
p3029
sa(dp3030
g5
I161
sg6
I01
sg7
I162
sg8
S'6499.08'
p3031
sa(dp3032
g5
I162
sg6
I01
sg7
I162
sg8
S'6499.2'
p3033
sa(dp3034
g5
I162
sg6
I01
sg7
I163
sg8
S'6499.32'
p3035
sa(dp3036
g5
I162
sg6
I01
sg7
I163
sg8
S'6499.2'
p3037
sa(dp3038
g5
I162
sg6
I01
sg7
I163
sg8
S'6499.32'
p3039
sa(dp3040
g5
I162
sg6
I01
sg7
I163
sg8
S'6499.2'
p3041
sa(dp3042
g5
I162
sg6
I01
sg7
I163
sg8
S'6499.32'
p3043
sa(dp3044
g5
I162
sg6
I01
sg7
I163
sg8
S'6499.2'
p3045
sa(dp3046
g5
I162
sg6
I01
sg7
I163
sg8
S'6499.32'
p3047
sa(dp3048
g5
I162
sg6
I01
sg7
I163
sg8
S'6499.2'
p3049
sa(dp3050
g5
I162
sg6
I01
sg7
I163
sg8
S'6499.32'
p3051
sa(dp3052
g5
I162
sg6
I01
sg7
I163
sg8
S'6499.2'
p3053
sa(dp3054
g5
I162
sg6
I01
sg7
I163
sg8
S'6499.32'
p3055
sa(dp3056
g5
I162
sg6
I01
sg7
I163
sg8
S'6499.2'
p3057
sa(dp3058
g5
I162
sg6
I01
sg7
I163
sg8
S'6499.32'
p3059
sa(dp3060
g5
I163
sg6
I01
sg7
I163
sg8
S'6499.2'
p3061
sa(dp3062
g5
I163
sg6
I01
sg7
I164
sg8
S'6499.32'
p3063
sa(dp3064
g5
I163
sg6
I01
sg7
I164
sg8
S'6499.2'
p3065
sa(dp3066
g5
I163
sg6
I01
sg7
I164
sg8
S'6499.32'
p3067
sa(dp3068
g5
I163
sg6
I01
sg7
I164
sg8
S'6499.2'
p3069
sa(dp3070
g5
I163
sg6
I01
sg7
I164
sg8
S'6499.32'
p3071
sa(dp3072
g5
I163
sg6
I01
sg7
I164
sg8
S'6499.2'
p3073
sa(dp3074
g5
I163
sg6
I01
sg7
I164
sg8
S'6499.32'
p3075
sa(dp3076
g5
I163
sg6
I01
sg7
I164
sg8
S'6499.2'
p3077
sa(dp3078
g5
I163
sg6
I01
sg7
I164
sg8
S'6499.32'
p3079
sa(dp3080
g5
I163
sg6
I01
sg7
I164
sg8
S'6499.2'
p3081
sa(dp3082
g5
I163
sg6
I01
sg7
I164
sg8
S'6499.08'
p3083
sa(dp3084
g5
I163
sg6
I01
sg7
I164
sg8
S'6499.2'
p3085
sa(dp3086
g5
I163
sg6
I01
sg7
I164
sg8
S'6499.32'
p3087
sa(dp3088
g5
I163
sg6
I01
sg7
I164
sg8
S'6499.2'
p3089
sa(dp3090
g5
I163
sg6
I01
sg7
I164
sg8
S'6499.32'
p3091
sa(dp3092
g5
I164
sg6
I01
sg7
I164
sg8
S'6499.2'
p3093
sa(dp3094
g5
I164
sg6
I01
sg7
I165
sg8
S'6499.32'
p3095
sa(dp3096
g5
I164
sg6
I01
sg7
I165
sg8
S'6499.2'
p3097
sa(dp3098
g5
I164
sg6
I01
sg7
I165
sg8
S'6499.32'
p3099
sa(dp3100
g5
I164
sg6
I01
sg7
I165
sg8
S'6499.2'
p3101
sa(dp3102
g5
I164
sg6
I01
sg7
I165
sg8
S'6499.32'
p3103
sa(dp3104
g5
I164
sg6
I01
sg7
I165
sg8
S'6499.2'
p3105
sa(dp3106
g5
I164
sg6
I01
sg7
I165
sg8
S'6499.32'
p3107
sa(dp3108
g5
I165
sg6
I01
sg7
I165
sg8
S'6499.2'
p3109
sa(dp3110
g5
I165
sg6
I01
sg7
I166
sg8
S'6499.32'
p3111
sa(dp3112
g5
I165
sg6
I01
sg7
I166
sg8
S'6499.2'
p3113
sa(dp3114
g5
I165
sg6
I01
sg7
I166
sg8
S'6499.32'
p3115
sa(dp3116
g5
I165
sg6
I01
sg7
I166
sg8
S'6499.2'
p3117
sa(dp3118
g5
I165
sg6
I01
sg7
I166
sg8
S'6499.32'
p3119
sa(dp3120
g5
I165
sg6
I01
sg7
I166
sg8
S'6499.2'
p3121
sa(dp3122
g5
I165
sg6
I01
sg7
I166
sg8
S'6499.32'
p3123
sa(dp3124
g5
I165
sg6
I01
sg7
I166
sg8
S'6499.2'
p3125
sa(dp3126
g5
I165
sg6
I01
sg7
I166
sg8
S'6499.32'
p3127
sa(dp3128
g5
I165
sg6
I01
sg7
I166
sg8
S'6499.2'
p3129
sa(dp3130
g5
I165
sg6
I01
sg7
I166
sg8
S'6499.32'
p3131
sa(dp3132
g5
I165
sg6
I01
sg7
I166
sg8
S'6499.2'
p3133
sa(dp3134
g5
I165
sg6
I01
sg7
I166
sg8
S'6499.32'
p3135
sa(dp3136
g5
I165
sg6
I01
sg7
I166
sg8
S'6499.2'
p3137
sa(dp3138
g5
I165
sg6
I01
sg7
I166
sg8
S'6499.32'
p3139
sa(dp3140
g5
I166
sg6
I01
sg7
I166
sg8
S'6499.2'
p3141
sa(dp3142
g5
I166
sg6
I01
sg7
I167
sg8
S'6499.32'
p3143
sa(dp3144
g5
I166
sg6
I01
sg7
I167
sg8
S'6499.2'
p3145
sa(dp3146
g5
I166
sg6
I01
sg7
I167
sg8
S'6499.32'
p3147
sa(dp3148
g5
I166
sg6
I01
sg7
I167
sg8
S'6499.2'
p3149
sa(dp3150
g5
I166
sg6
I01
sg7
I167
sg8
S'6499.32'
p3151
sa(dp3152
g5
I166
sg6
I01
sg7
I167
sg8
S'6499.2'
p3153
sa(dp3154
g5
I166
sg6
I01
sg7
I167
sg8
S'6499.32'
p3155
sa(dp3156
g5
I166
sg6
I01
sg7
I167
sg8
S'6499.2'
p3157
sa(dp3158
g5
I166
sg6
I01
sg7
I167
sg8
S'6499.32'
p3159
sa(dp3160
g5
I166
sg6
I01
sg7
I167
sg8
S'6499.2'
p3161
sa(dp3162
g5
I166
sg6
I01
sg7
I167
sg8
S'6499.32'
p3163
sa(dp3164
g5
I167
sg6
I01
sg7
I167
sg8
S'6499.2'
p3165
sa(dp3166
g5
I167
sg6
I01
sg7
I168
sg8
S'6499.32'
p3167
sa(dp3168
g5
I167
sg6
I01
sg7
I168
sg8
S'6499.2'
p3169
sa(dp3170
g5
I167
sg6
I01
sg7
I168
sg8
S'6499.32'
p3171
sa(dp3172
g5
I167
sg6
I01
sg7
I168
sg8
S'6499.2'
p3173
sa(dp3174
g5
I167
sg6
I01
sg7
I168
sg8
S'6499.32'
p3175
sa(dp3176
g5
I167
sg6
I01
sg7
I168
sg8
S'6499.2'
p3177
sa(dp3178
g5
I167
sg6
I01
sg7
I168
sg8
S'6499.32'
p3179
sa(dp3180
g5
I167
sg6
I01
sg7
I168
sg8
S'6499.2'
p3181
sa(dp3182
g5
I167
sg6
I01
sg7
I168
sg8
S'6499.32'
p3183
sa(dp3184
g5
I167
sg6
I01
sg7
I168
sg8
S'6499.2'
p3185
sa(dp3186
g5
I167
sg6
I01
sg7
I168
sg8
S'6499.08'
p3187
sa(dp3188
g5
I168
sg6
I01
sg7
I168
sg8
S'6499.2'
p3189
sa(dp3190
g5
I168
sg6
I01
sg7
I169
sg8
S'6499.08'
p3191
sa(dp3192
g5
I168
sg6
I01
sg7
I169
sg8
S'6499.2'
p3193
sa(dp3194
g5
I168
sg6
I01
sg7
I169
sg8
S'6499.32'
p3195
sa(dp3196
g5
I168
sg6
I01
sg7
I169
sg8
S'6499.08'
p3197
sa(dp3198
g5
I168
sg6
I01
sg7
I169
sg8
S'6499.2'
p3199
sa(dp3200
g5
I168
sg6
I01
sg7
I169
sg8
S'6499.32'
p3201
sa(dp3202
g5
I168
sg6
I01
sg7
I169
sg8
S'6499.2'
p3203
sa(dp3204
g5
I168
sg6
I01
sg7
I169
sg8
S'6499.32'
p3205
sa(dp3206
g5
I168
sg6
I01
sg7
I169
sg8
S'6499.2'
p3207
sa(dp3208
g5
I169
sg6
I01
sg7
I169
sg8
S'6499.32'
p3209
sa(dp3210
g5
I169
sg6
I01
sg7
I170
sg8
S'6499.2'
p3211
sa(dp3212
g5
I169
sg6
I01
sg7
I170
sg8
S'6499.32'
p3213
sa(dp3214
g5
I169
sg6
I01
sg7
I170
sg8
S'6499.2'
p3215
sa(dp3216
g5
I169
sg6
I01
sg7
I170
sg8
S'6499.32'
p3217
sa(dp3218
g5
I169
sg6
I01
sg7
I170
sg8
S'6499.2'
p3219
sa(dp3220
g5
I169
sg6
I01
sg7
I170
sg8
S'6499.32'
p3221
sa(dp3222
g5
I169
sg6
I01
sg7
I170
sg8
S'6499.2'
p3223
sa(dp3224
g5
I169
sg6
I01
sg7
I170
sg8
S'6499.32'
p3225
sa(dp3226
g5
I169
sg6
I01
sg7
I170
sg8
S'6499.2'
p3227
sa(dp3228
g5
I169
sg6
I01
sg7
I170
sg8
S'6499.32'
p3229
sa(dp3230
g5
I169
sg6
I01
sg7
I170
sg8
S'6499.2'
p3231
sa(dp3232
g5
I169
sg6
I01
sg7
I170
sg8
S'6499.32'
p3233
sa(dp3234
g5
I169
sg6
I01
sg7
I170
sg8
S'6499.2'
p3235
sa(dp3236
g5
I169
sg6
I01
sg7
I170
sg8
S'6499.32'
p3237
sa(dp3238
g5
I169
sg6
I01
sg7
I170
sg8
S'6499.2'
p3239
sa(dp3240
g5
I169
sg6
I01
sg7
I170
sg8
S'6499.32'
p3241
sa(dp3242
g5
I169
sg6
I01
sg7
I170
sg8
S'6499.2'
p3243
sa(dp3244
g5
I169
sg6
I01
sg7
I170
sg8
S'6499.32'
p3245
sa(dp3246
g5
I170
sg6
I01
sg7
I170
sg8
S'6499.2'
p3247
sa(dp3248
g5
I170
sg6
I01
sg7
I171
sg8
S'6499.32'
p3249
sa(dp3250
g5
I170
sg6
I01
sg7
I171
sg8
S'6499.2'
p3251
sa(dp3252
g5
I170
sg6
I01
sg7
I171
sg8
S'6499.32'
p3253
sa(dp3254
g5
I170
sg6
I01
sg7
I171
sg8
S'6499.2'
p3255
sa(dp3256
g5
I170
sg6
I01
sg7
I171
sg8
S'6499.32'
p3257
sa(dp3258
g5
I170
sg6
I01
sg7
I171
sg8
S'6499.2'
p3259
sa(dp3260
g5
I170
sg6
I01
sg7
I171
sg8
S'6499.32'
p3261
sa(dp3262
g5
I170
sg6
I01
sg7
I171
sg8
S'6499.2'
p3263
sa(dp3264
g5
I170
sg6
I01
sg7
I171
sg8
S'6499.32'
p3265
sa(dp3266
g5
I170
sg6
I01
sg7
I171
sg8
S'6499.2'
p3267
sa(dp3268
g5
I170
sg6
I01
sg7
I171
sg8
S'6499.32'
p3269
sa(dp3270
g5
I170
sg6
I01
sg7
I171
sg8
S'6499.2'
p3271
sa(dp3272
g5
I170
sg6
I01
sg7
I171
sg8
S'6499.32'
p3273
sa(dp3274
g5
I170
sg6
I01
sg7
I171
sg8
S'6499.2'
p3275
sa(dp3276
g5
I170
sg6
I01
sg7
I171
sg8
S'6499.32'
p3277
sa(dp3278
g5
I170
sg6
I01
sg7
I171
sg8
S'6499.2'
p3279
sa(dp3280
g5
I170
sg6
I01
sg7
I171
sg8
S'6499.32'
p3281
sa(dp3282
g5
I171
sg6
I01
sg7
I171
sg8
S'6499.2'
p3283
sa(dp3284
g5
I171
sg6
I01
sg7
I172
sg8
S'6499.32'
p3285
sa(dp3286
g5
I171
sg6
I01
sg7
I172
sg8
S'6499.2'
p3287
sa(dp3288
g5
I171
sg6
I01
sg7
I172
sg8
S'6499.08'
p3289
sa(dp3290
g5
I171
sg6
I01
sg7
I172
sg8
S'6499.2'
p3291
sa(dp3292
g5
I171
sg6
I01
sg7
I172
sg8
S'6499.32'
p3293
sa(dp3294
g5
I172
sg6
I01
sg7
I172
sg8
S'6499.2'
p3295
sa(dp3296
g5
I172
sg6
I01
sg7
I173
sg8
S'6499.32'
p3297
sa(dp3298
g5
I172
sg6
I01
sg7
I173
sg8
S'6499.2'
p3299
sa(dp3300
g5
I172
sg6
I01
sg7
I173
sg8
S'6499.08'
p3301
sa(dp3302
g5
I172
sg6
I01
sg7
I173
sg8
S'6499.2'
p3303
sa(dp3304
g5
I172
sg6
I01
sg7
I173
sg8
S'6499.32'
p3305
sa(dp3306
g5
I172
sg6
I01
sg7
I173
sg8
S'6499.2'
p3307
sa(dp3308
g5
I172
sg6
I01
sg7
I173
sg8
S'6499.08'
p3309
sa(dp3310
g5
I172
sg6
I01
sg7
I173
sg8
S'6499.2'
p3311
sa(dp3312
g5
I172
sg6
I01
sg7
I173
sg8
S'6499.32'
p3313
sa(dp3314
g5
I173
sg6
I01
sg7
I173
sg8
S'6499.2'
p3315
sa(dp3316
g5
I173
sg6
I01
sg7
I174
sg8
S'6499.32'
p3317
sa(dp3318
g5
I173
sg6
I01
sg7
I174
sg8
S'6499.2'
p3319
sa(dp3320
g5
I173
sg6
I01
sg7
I174
sg8
S'6499.32'
p3321
sa(dp3322
g5
I173
sg6
I01
sg7
I174
sg8
S'6499.2'
p3323
sa(dp3324
g5
I173
sg6
I01
sg7
I174
sg8
S'6499.08'
p3325
sa(dp3326
g5
I173
sg6
I01
sg7
I174
sg8
S'6499.2'
p3327
sa(dp3328
g5
I173
sg6
I01
sg7
I174
sg8
S'6499.32'
p3329
sa(dp3330
g5
I173
sg6
I01
sg7
I174
sg8
S'6499.2'
p3331
sa(dp3332
g5
I173
sg6
I01
sg7
I174
sg8
S'6499.08'
p3333
sa(dp3334
g5
I174
sg6
I01
sg7
I174
sg8
S'6499.2'
p3335
sa(dp3336
g5
I174
sg6
I01
sg7
I175
sg8
S'6499.08'
p3337
sa(dp3338
g5
I174
sg6
I01
sg7
I175
sg8
S'6499.2'
p3339
sa(dp3340
g5
I174
sg6
I01
sg7
I175
sg8
S'6499.08'
p3341
sa(dp3342
g5
I174
sg6
I01
sg7
I175
sg8
S'6499.2'
p3343
sa(dp3344
g5
I174
sg6
I01
sg7
I175
sg8
S'6499.08'
p3345
sa(dp3346
g5
I174
sg6
I01
sg7
I175
sg8
S'6499.2'
p3347
sa(dp3348
g5
I174
sg6
I01
sg7
I175
sg8
S'6499.08'
p3349
sa(dp3350
g5
I174
sg6
I01
sg7
I175
sg8
S'6499.2'
p3351
sa(dp3352
g5
I174
sg6
I01
sg7
I175
sg8
S'6499.08'
p3353
sa(dp3354
g5
I174
sg6
I01
sg7
I175
sg8
S'6499.2'
p3355
sa(dp3356
g5
I175
sg6
I01
sg7
I175
sg8
S'6499.08'
p3357
sa(dp3358
g5
I175
sg6
I01
sg7
I176
sg8
S'6499.2'
p3359
sa(dp3360
g5
I175
sg6
I01
sg7
I176
sg8
S'6499.32'
p3361
sa(dp3362
g5
I175
sg6
I01
sg7
I176
sg8
S'6499.2'
p3363
sa(dp3364
g5
I175
sg6
I01
sg7
I176
sg8
S'6499.08'
p3365
sa(dp3366
g5
I175
sg6
I01
sg7
I176
sg8
S'6499.2'
p3367
sa(dp3368
g5
I175
sg6
I01
sg7
I176
sg8
S'6499.08'
p3369
sa(dp3370
g5
I175
sg6
I01
sg7
I176
sg8
S'6499.2'
p3371
sa(dp3372
g5
I175
sg6
I01
sg7
I176
sg8
S'6499.32'
p3373
sa(dp3374
g5
I175
sg6
I01
sg7
I176
sg8
S'6499.2'
p3375
sa(dp3376
g5
I175
sg6
I01
sg7
I176
sg8
S'6499.32'
p3377
sa(dp3378
g5
I175
sg6
I01
sg7
I176
sg8
S'6499.2'
p3379
sa(dp3380
g5
I175
sg6
I01
sg7
I176
sg8
S'6499.32'
p3381
sa(dp3382
g5
I176
sg6
I01
sg7
I176
sg8
S'6499.2'
p3383
sa(dp3384
g5
I176
sg6
I01
sg7
I177
sg8
S'6499.32'
p3385
sa(dp3386
g5
I176
sg6
I01
sg7
I177
sg8
S'6499.2'
p3387
sa(dp3388
g5
I176
sg6
I01
sg7
I177
sg8
S'6499.32'
p3389
sa(dp3390
g5
I176
sg6
I01
sg7
I177
sg8
S'6499.2'
p3391
sa(dp3392
g5
I176
sg6
I01
sg7
I177
sg8
S'6499.32'
p3393
sa(dp3394
g5
I176
sg6
I01
sg7
I177
sg8
S'6499.2'
p3395
sa(dp3396
g5
I176
sg6
I01
sg7
I177
sg8
S'6499.32'
p3397
sa(dp3398
g5
I177
sg6
I01
sg7
I177
sg8
S'6499.2'
p3399
sa(dp3400
g5
I177
sg6
I01
sg7
I178
sg8
S'6499.32'
p3401
sa(dp3402
g5
I177
sg6
I01
sg7
I178
sg8
S'6499.2'
p3403
sa(dp3404
g5
I177
sg6
I01
sg7
I178
sg8
S'6499.32'
p3405
sa(dp3406
g5
I177
sg6
I01
sg7
I178
sg8
S'6499.2'
p3407
sa(dp3408
g5
I177
sg6
I01
sg7
I178
sg8
S'6499.32'
p3409
sa(dp3410
g5
I178
sg6
I01
sg7
I178
sg8
S'6499.2'
p3411
sa(dp3412
g5
I178
sg6
I01
sg7
I179
sg8
S'6499.32'
p3413
sa(dp3414
g5
I178
sg6
I01
sg7
I179
sg8
S'6499.2'
p3415
sa(dp3416
g5
I178
sg6
I01
sg7
I179
sg8
S'6499.32'
p3417
sa(dp3418
g5
I178
sg6
I01
sg7
I179
sg8
S'6499.2'
p3419
sa(dp3420
g5
I178
sg6
I01
sg7
I179
sg8
S'6499.32'
p3421
sa(dp3422
g5
I178
sg6
I01
sg7
I179
sg8
S'6499.2'
p3423
sa(dp3424
g5
I178
sg6
I01
sg7
I179
sg8
S'6499.32'
p3425
sa(dp3426
g5
I179
sg6
I01
sg7
I179
sg8
S'6499.2'
p3427
sa(dp3428
g5
I179
sg6
I01
sg7
I180
sg8
S'6499.32'
p3429
sa(dp3430
g5
I179
sg6
I01
sg7
I180
sg8
S'6499.2'
p3431
sa(dp3432
g5
I179
sg6
I01
sg7
I180
sg8
S'6499.32'
p3433
sa(dp3434
g5
I179
sg6
I01
sg7
I180
sg8
S'6499.2'
p3435
sa(dp3436
g5
I179
sg6
I01
sg7
I180
sg8
S'6499.32'
p3437
sa(dp3438
g5
I179
sg6
I01
sg7
I180
sg8
S'6499.2'
p3439
sa(dp3440
g5
I179
sg6
I01
sg7
I180
sg8
S'6499.32'
p3441
sa(dp3442
g5
I180
sg6
I01
sg7
I180
sg8
S'6499.2'
p3443
sa(dp3444
g5
I180
sg6
I01
sg7
I181
sg8
S'6499.08'
p3445
sa(dp3446
g5
I180
sg6
I01
sg7
I181
sg8
S'6499.2'
p3447
sa(dp3448
g5
I180
sg6
I01
sg7
I181
sg8
S'6499.32'
p3449
sa(dp3450
g5
I180
sg6
I01
sg7
I181
sg8
S'6499.2'
p3451
sa(dp3452
g5
I180
sg6
I01
sg7
I181
sg8
S'6499.32'
p3453
sa(dp3454
g5
I181
sg6
I01
sg7
I181
sg8
S'6499.2'
p3455
sa(dp3456
g5
I181
sg6
I01
sg7
I182
sg8
S'6499.08'
p3457
sa(dp3458
g5
I181
sg6
I01
sg7
I182
sg8
S'6499.2'
p3459
sa(dp3460
g5
I181
sg6
I01
sg7
I182
sg8
S'6499.08'
p3461
sa(dp3462
g5
I181
sg6
I01
sg7
I182
sg8
S'6499.2'
p3463
sa(dp3464
g5
I181
sg6
I01
sg7
I182
sg8
S'6499.08'
p3465
sa(dp3466
g5
I181
sg6
I01
sg7
I182
sg8
S'6499.32'
p3467
sa(dp3468
g5
I181
sg6
I01
sg7
I182
sg8
S'6499.2'
p3469
sa(dp3470
g5
I181
sg6
I01
sg7
I182
sg8
S'6499.08'
p3471
sa(dp3472
g5
I181
sg6
I01
sg7
I182
sg8
S'6499.2'
p3473
sa(dp3474
g5
I181
sg6
I01
sg7
I182
sg8
S'6499.08'
p3475
sa(dp3476
g5
I181
sg6
I01
sg7
I182
sg8
S'6499.2'
p3477
sa(dp3478
g5
I181
sg6
I01
sg7
I182
sg8
S'6499.08'
p3479
sa(dp3480
g5
I181
sg6
I01
sg7
I182
sg8
S'6499.2'
p3481
sa(dp3482
g5
I181
sg6
I01
sg7
I182
sg8
S'6499.08'
p3483
sa(dp3484
g5
I182
sg6
I01
sg7
I182
sg8
S'6499.2'
p3485
sa(dp3486
g5
I182
sg6
I01
sg7
I183
sg8
S'6499.32'
p3487
sa(dp3488
g5
I183
sg6
I01
sg7
I183
sg8
S'6499.2'
p3489
sa(dp3490
g5
I183
sg6
I01
sg7
I184
sg8
S'6499.32'
p3491
sa(dp3492
g5
I183
sg6
I01
sg7
I184
sg8
S'6499.2'
p3493
sa(dp3494
g5
I183
sg6
I01
sg7
I184
sg8
S'6499.32'
p3495
sa(dp3496
g5
I183
sg6
I01
sg7
I184
sg8
S'6499.2'
p3497
sa(dp3498
g5
I183
sg6
I01
sg7
I184
sg8
S'6499.32'
p3499
sa(dp3500
g5
I183
sg6
I01
sg7
I184
sg8
S'6499.2'
p3501
sa(dp3502
g5
I183
sg6
I01
sg7
I184
sg8
S'6499.32'
p3503
sa(dp3504
g5
I183
sg6
I01
sg7
I184
sg8
S'6499.2'
p3505
sa(dp3506
g5
I183
sg6
I01
sg7
I184
sg8
S'6499.08'
p3507
sa(dp3508
g5
I183
sg6
I01
sg7
I184
sg8
S'6499.2'
p3509
sa(dp3510
g5
I183
sg6
I01
sg7
I184
sg8
S'6499.32'
p3511
sa(dp3512
g5
I184
sg6
I01
sg7
I184
sg8
S'6499.2'
p3513
sa(dp3514
g5
I184
sg6
I01
sg7
I185
sg8
S'6499.32'
p3515
sa(dp3516
g5
I184
sg6
I01
sg7
I185
sg8
S'6499.2'
p3517
sa(dp3518
g5
I184
sg6
I01
sg7
I185
sg8
S'6499.08'
p3519
sa(dp3520
g5
I184
sg6
I01
sg7
I185
sg8
S'6499.2'
p3521
sa(dp3522
g5
I184
sg6
I01
sg7
I185
sg8
S'6499.08'
p3523
sa(dp3524
g5
I184
sg6
I01
sg7
I185
sg8
S'6499.2'
p3525
sa(dp3526
g5
I184
sg6
I01
sg7
I185
sg8
S'6499.08'
p3527
sa(dp3528
g5
I184
sg6
I01
sg7
I185
sg8
S'6499.2'
p3529
sa(dp3530
g5
I184
sg6
I01
sg7
I185
sg8
S'6499.08'
p3531
sa(dp3532
g5
I185
sg6
I01
sg7
I185
sg8
S'6499.2'
p3533
sa(dp3534
g5
I185
sg6
I01
sg7
I186
sg8
S'6499.32'
p3535
sa(dp3536
g5
I185
sg6
I01
sg7
I186
sg8
S'6499.2'
p3537
sa(dp3538
g5
I185
sg6
I01
sg7
I186
sg8
S'6499.32'
p3539
sa(dp3540
g5
I186
sg6
I01
sg7
I186
sg8
S'6499.2'
p3541
sa(dp3542
g5
I186
sg6
I01
sg7
I187
sg8
S'6499.32'
p3543
sa(dp3544
g5
I186
sg6
I01
sg7
I187
sg8
S'6499.2'
p3545
sa(dp3546
g5
I186
sg6
I01
sg7
I187
sg8
S'6499.32'
p3547
sa(dp3548
g5
I187
sg6
I01
sg7
I187
sg8
S'6499.2'
p3549
sa(dp3550
g5
I187
sg6
I01
sg7
I188
sg8
S'6499.32'
p3551
sa(dp3552
g5
I187
sg6
I01
sg7
I188
sg8
S'6499.2'
p3553
sa(dp3554
g5
I187
sg6
I01
sg7
I188
sg8
S'6499.08'
p3555
sa(dp3556
g5
I187
sg6
I01
sg7
I188
sg8
S'6499.2'
p3557
sa(dp3558
g5
I187
sg6
I01
sg7
I188
sg8
S'6499.08'
p3559
sa(dp3560
g5
I187
sg6
I01
sg7
I188
sg8
S'6499.2'
p3561
sa(dp3562
g5
I187
sg6
I01
sg7
I188
sg8
S'6499.08'
p3563
sa(dp3564
g5
I187
sg6
I01
sg7
I188
sg8
S'6499.2'
p3565
sa(dp3566
g5
I187
sg6
I01
sg7
I188
sg8
S'6499.08'
p3567
sa(dp3568
g5
I187
sg6
I01
sg7
I188
sg8
S'6499.2'
p3569
sa(dp3570
g5
I187
sg6
I01
sg7
I188
sg8
S'6499.08'
p3571
sa(dp3572
g5
I187
sg6
I01
sg7
I188
sg8
S'6499.2'
p3573
sa(dp3574
g5
I187
sg6
I01
sg7
I188
sg8
S'6499.08'
p3575
sa(dp3576
g5
I187
sg6
I01
sg7
I188
sg8
S'6499.2'
p3577
sa(dp3578
g5
I187
sg6
I01
sg7
I188
sg8
S'6499.08'
p3579
sa(dp3580
g5
I187
sg6
I01
sg7
I188
sg8
S'6499.2'
p3581
sa(dp3582
g5
I187
sg6
I01
sg7
I188
sg8
S'6499.08'
p3583
sa(dp3584
g5
I187
sg6
I01
sg7
I188
sg8
S'6499.2'
p3585
sa(dp3586
g5
I187
sg6
I01
sg7
I188
sg8
S'6499.08'
p3587
sa(dp3588
g5
I187
sg6
I01
sg7
I188
sg8
S'6499.2'
p3589
sa(dp3590
g5
I187
sg6
I01
sg7
I188
sg8
S'6499.08'
p3591
sa(dp3592
g5
I188
sg6
I01
sg7
I188
sg8
S'6499.2'
p3593
sa(dp3594
g5
I188
sg6
I01
sg7
I189
sg8
S'6499.08'
p3595
sa(dp3596
g5
I188
sg6
I01
sg7
I189
sg8
S'6499.2'
p3597
sa(dp3598
g5
I188
sg6
I01
sg7
I189
sg8
S'6499.32'
p3599
sa(dp3600
g5
I189
sg6
I01
sg7
I189
sg8
S'6499.2'
p3601
sa(dp3602
g5
I189
sg6
I01
sg7
I190
sg8
S'6499.32'
p3603
sa(dp3604
g5
I189
sg6
I01
sg7
I190
sg8
S'6499.2'
p3605
sa(dp3606
g5
I189
sg6
I01
sg7
I190
sg8
S'6499.32'
p3607
sa(dp3608
g5
I189
sg6
I01
sg7
I190
sg8
S'6499.2'
p3609
sa(dp3610
g5
I190
sg6
I01
sg7
I190
sg8
S'6499.32'
p3611
sa(dp3612
g5
I190
sg6
I01
sg7
I191
sg8
S'6499.2'
p3613
sa(dp3614
g5
I190
sg6
I01
sg7
I191
sg8
S'6499.08'
p3615
sa(dp3616
g5
I190
sg6
I01
sg7
I191
sg8
S'6499.32'
p3617
sa(dp3618
g5
I190
sg6
I01
sg7
I191
sg8
S'6499.2'
p3619
sa(dp3620
g5
I190
sg6
I01
sg7
I191
sg8
S'6499.08'
p3621
sa(dp3622
g5
I190
sg6
I01
sg7
I191
sg8
S'6499.2'
p3623
sa(dp3624
g5
I190
sg6
I01
sg7
I191
sg8
S'6499.08'
p3625
sa(dp3626
g5
I191
sg6
I01
sg7
I191
sg8
S'6499.2'
p3627
sa(dp3628
g5
I191
sg6
I01
sg7
I192
sg8
S'6499.08'
p3629
sa(dp3630
g5
I191
sg6
I01
sg7
I192
sg8
S'6499.2'
p3631
sa(dp3632
g5
I191
sg6
I01
sg7
I192
sg8
S'6499.08'
p3633
sa(dp3634
g5
I191
sg6
I01
sg7
I192
sg8
S'6499.2'
p3635
sa(dp3636
g5
I191
sg6
I01
sg7
I192
sg8
S'6499.08'
p3637
sa(dp3638
g5
I191
sg6
I01
sg7
I192
sg8
S'6499.2'
p3639
sa(dp3640
g5
I191
sg6
I01
sg7
I192
sg8
S'6499.32'
p3641
sa(dp3642
g5
I191
sg6
I01
sg7
I192
sg8
S'6499.2'
p3643
sa(dp3644
g5
I191
sg6
I01
sg7
I192
sg8
S'6499.32'
p3645
sa(dp3646
g5
I191
sg6
I01
sg7
I192
sg8
S'6499.2'
p3647
sa(dp3648
g5
I191
sg6
I01
sg7
I192
sg8
S'6499.08'
p3649
sa(dp3650
g5
I191
sg6
I01
sg7
I192
sg8
S'6499.2'
p3651
sa(dp3652
g5
I191
sg6
I01
sg7
I192
sg8
S'6499.32'
p3653
sa(dp3654
g5
I191
sg6
I01
sg7
I192
sg8
S'6499.2'
p3655
sa(dp3656
g5
I191
sg6
I01
sg7
I192
sg8
S'6499.32'
p3657
sa(dp3658
g5
I191
sg6
I01
sg7
I192
sg8
S'6499.2'
p3659
sa(dp3660
g5
I191
sg6
I01
sg7
I192
sg8
S'6499.32'
p3661
sa(dp3662
g5
I191
sg6
I01
sg7
I192
sg8
S'6499.2'
p3663
sa(dp3664
g5
I191
sg6
I01
sg7
I192
sg8
S'6499.32'
p3665
sa(dp3666
g5
I192
sg6
I01
sg7
I192
sg8
S'6499.2'
p3667
sa(dp3668
g5
I192
sg6
I01
sg7
I193
sg8
S'6499.32'
p3669
sa(dp3670
g5
I192
sg6
I01
sg7
I193
sg8
S'6499.2'
p3671
sa(dp3672
g5
I192
sg6
I01
sg7
I193
sg8
S'6499.32'
p3673
sa(dp3674
g5
I193
sg6
I01
sg7
I193
sg8
S'6499.2'
p3675
sa(dp3676
g5
I193
sg6
I01
sg7
I194
sg8
S'6499.32'
p3677
sa(dp3678
g5
I193
sg6
I01
sg7
I194
sg8
S'6499.2'
p3679
sa(dp3680
g5
I193
sg6
I01
sg7
I194
sg8
S'6499.32'
p3681
sa(dp3682
g5
I193
sg6
I01
sg7
I194
sg8
S'6499.2'
p3683
sa(dp3684
g5
I193
sg6
I01
sg7
I194
sg8
S'6499.32'
p3685
sa(dp3686
g5
I193
sg6
I01
sg7
I194
sg8
S'6499.2'
p3687
sa(dp3688
g5
I193
sg6
I01
sg7
I194
sg8
S'6499.32'
p3689
sa(dp3690
g5
I193
sg6
I01
sg7
I194
sg8
S'6499.2'
p3691
sa(dp3692
g5
I193
sg6
I01
sg7
I194
sg8
S'6499.08'
p3693
sa(dp3694
g5
I194
sg6
I01
sg7
I194
sg8
S'6499.2'
p3695
sa(dp3696
g5
I194
sg6
I01
sg7
I195
sg8
S'6499.32'
p3697
sa(dp3698
g5
I194
sg6
I01
sg7
I195
sg8
S'6499.2'
p3699
sa(dp3700
g5
I194
sg6
I01
sg7
I195
sg8
S'6499.08'
p3701
sa(dp3702
g5
I194
sg6
I01
sg7
I195
sg8
S'6499.2'
p3703
sa(dp3704
g5
I194
sg6
I01
sg7
I195
sg8
S'6499.32'
p3705
sa(dp3706
g5
I194
sg6
I01
sg7
I195
sg8
S'6499.2'
p3707
sa(dp3708
g5
I194
sg6
I01
sg7
I195
sg8
S'6499.08'
p3709
sa(dp3710
g5
I194
sg6
I01
sg7
I195
sg8
S'6499.2'
p3711
sa(dp3712
g5
I194
sg6
I01
sg7
I195
sg8
S'6499.32'
p3713
sa(dp3714
g5
I195
sg6
I01
sg7
I195
sg8
S'6499.2'
p3715
sa(dp3716
g5
I195
sg6
I01
sg7
I196
sg8
S'6499.32'
p3717
sa(dp3718
g5
I195
sg6
I01
sg7
I196
sg8
S'6499.2'
p3719
sa(dp3720
g5
I195
sg6
I01
sg7
I196
sg8
S'6499.08'
p3721
sa(dp3722
g5
I195
sg6
I01
sg7
I196
sg8
S'6499.2'
p3723
sa(dp3724
g5
I195
sg6
I01
sg7
I196
sg8
S'6499.08'
p3725
sa(dp3726
g5
I195
sg6
I01
sg7
I196
sg8
S'6499.2'
p3727
sa(dp3728
g5
I195
sg6
I01
sg7
I196
sg8
S'6499.32'
p3729
sa(dp3730
g5
I195
sg6
I01
sg7
I196
sg8
S'6499.2'
p3731
sa(dp3732
g5
I195
sg6
I01
sg7
I196
sg8
S'6499.08'
p3733
sa(dp3734
g5
I195
sg6
I01
sg7
I196
sg8
S'6499.2'
p3735
sa(dp3736
g5
I195
sg6
I01
sg7
I196
sg8
S'6499.08'
p3737
sa(dp3738
g5
I195
sg6
I01
sg7
I196
sg8
S'6499.2'
p3739
sa(dp3740
g5
I195
sg6
I01
sg7
I196
sg8
S'6499.08'
p3741
sa(dp3742
g5
I195
sg6
I01
sg7
I196
sg8
S'6499.2'
p3743
sa(dp3744
g5
I195
sg6
I01
sg7
I196
sg8
S'6499.08'
p3745
sa(dp3746
g5
I196
sg6
I01
sg7
I196
sg8
S'6499.2'
p3747
sa(dp3748
g5
I196
sg6
I01
sg7
I197
sg8
S'6499.08'
p3749
sa(dp3750
g5
I196
sg6
I01
sg7
I197
sg8
S'6499.2'
p3751
sa(dp3752
g5
I196
sg6
I01
sg7
I197
sg8
S'6499.08'
p3753
sa(dp3754
g5
I196
sg6
I01
sg7
I197
sg8
S'6499.2'
p3755
sa(dp3756
g5
I196
sg6
I01
sg7
I197
sg8
S'6499.32'
p3757
sa(dp3758
g5
I196
sg6
I01
sg7
I197
sg8
S'6499.2'
p3759
sa(dp3760
g5
I196
sg6
I01
sg7
I197
sg8
S'6499.08'
p3761
sa(dp3762
g5
I196
sg6
I01
sg7
I197
sg8
S'6499.2'
p3763
sa(dp3764
g5
I196
sg6
I01
sg7
I197
sg8
S'6499.08'
p3765
sa(dp3766
g5
I196
sg6
I01
sg7
I197
sg8
S'6499.2'
p3767
sa(dp3768
g5
I196
sg6
I01
sg7
I197
sg8
S'6499.08'
p3769
sa(dp3770
g5
I197
sg6
I01
sg7
I197
sg8
S'6499.2'
p3771
sa(dp3772
g5
I197
sg6
I01
sg7
I198
sg8
S'6499.08'
p3773
sa(dp3774
g5
I197
sg6
I01
sg7
I198
sg8
S'6499.2'
p3775
sa(dp3776
g5
I197
sg6
I01
sg7
I198
sg8
S'6499.32'
p3777
sa(dp3778
g5
I197
sg6
I01
sg7
I198
sg8
S'6499.2'
p3779
sa(dp3780
g5
I197
sg6
I01
sg7
I198
sg8
S'6499.08'
p3781
sa(dp3782
g5
I197
sg6
I01
sg7
I198
sg8
S'6499.2'
p3783
sa(dp3784
g5
I197
sg6
I01
sg7
I198
sg8
S'6499.08'
p3785
sa(dp3786
g5
I197
sg6
I01
sg7
I198
sg8
S'6499.2'
p3787
sa(dp3788
g5
I197
sg6
I01
sg7
I198
sg8
S'6499.08'
p3789
sa(dp3790
g5
I197
sg6
I01
sg7
I198
sg8
S'6499.2'
p3791
sa(dp3792
g5
I197
sg6
I01
sg7
I198
sg8
S'6499.08'
p3793
sa(dp3794
g5
I197
sg6
I01
sg7
I198
sg8
S'6499.2'
p3795
sa(dp3796
g5
I197
sg6
I01
sg7
I198
sg8
S'6499.08'
p3797
sa(dp3798
g5
I197
sg6
I01
sg7
I198
sg8
S'6499.2'
p3799
sa(dp3800
g5
I197
sg6
I01
sg7
I198
sg8
S'6499.08'
p3801
sa(dp3802
g5
I197
sg6
I01
sg7
I198
sg8
S'6499.2'
p3803
sa(dp3804
g5
I197
sg6
I01
sg7
I198
sg8
S'6499.32'
p3805
sa(dp3806
g5
I198
sg6
I01
sg7
I198
sg8
S'6499.2'
p3807
sa(dp3808
g5
I198
sg6
I01
sg7
I199
sg8
S'6499.08'
p3809
sa(dp3810
g5
I198
sg6
I01
sg7
I199
sg8
S'6499.2'
p3811
sa(dp3812
g5
I198
sg6
I01
sg7
I199
sg8
S'6499.32'
p3813
sa(dp3814
g5
I198
sg6
I01
sg7
I199
sg8
S'6499.2'
p3815
sa(dp3816
g5
I198
sg6
I01
sg7
I199
sg8
S'6499.32'
p3817
sa(dp3818
g5
I199
sg6
I01
sg7
I199
sg8
S'6499.2'
p3819
sa(dp3820
g5
I199
sg6
I01
sg7
I200
sg8
S'6499.32'
p3821
sa(dp3822
g5
I199
sg6
I01
sg7
I200
sg8
S'6499.2'
p3823
sa(dp3824
g5
I199
sg6
I01
sg7
I200
sg8
S'6499.32'
p3825
sa(dp3826
g5
I200
sg6
I01
sg7
I200
sg8
S'6499.2'
p3827
sa(dp3828
g5
I200
sg6
I01
sg7
I201
sg8
S'6499.32'
p3829
sa(dp3830
g5
I201
sg6
I01
sg7
I201
sg8
S'6499.2'
p3831
sa(dp3832
g5
I201
sg6
I01
sg7
I202
sg8
S'6499.32'
p3833
sa(dp3834
g5
I201
sg6
I01
sg7
I202
sg8
S'6499.2'
p3835
sa(dp3836
g5
I201
sg6
I01
sg7
I202
sg8
S'6499.08'
p3837
sa(dp3838
g5
I201
sg6
I01
sg7
I202
sg8
S'6499.2'
p3839
sa(dp3840
g5
I201
sg6
I01
sg7
I202
sg8
S'6499.32'
p3841
sa(dp3842
g5
I201
sg6
I01
sg7
I202
sg8
S'6499.2'
p3843
sa(dp3844
g5
I201
sg6
I01
sg7
I202
sg8
S'6499.32'
p3845
sa(dp3846
g5
I201
sg6
I01
sg7
I202
sg8
S'6499.2'
p3847
sa(dp3848
g5
I201
sg6
I01
sg7
I202
sg8
S'6499.32'
p3849
sa(dp3850
g5
I202
sg6
I01
sg7
I202
sg8
S'6499.2'
p3851
sa(dp3852
g5
I202
sg6
I01
sg7
I203
sg8
S'6499.32'
p3853
sa(dp3854
g5
I202
sg6
I01
sg7
I203
sg8
S'6499.2'
p3855
sa(dp3856
g5
I202
sg6
I01
sg7
I203
sg8
S'6499.32'
p3857
sa(dp3858
g5
I202
sg6
I01
sg7
I203
sg8
S'6499.2'
p3859
sa(dp3860
g5
I202
sg6
I01
sg7
I203
sg8
S'6499.32'
p3861
sa(dp3862
g5
I202
sg6
I01
sg7
I203
sg8
S'6499.2'
p3863
sa(dp3864
g5
I202
sg6
I01
sg7
I203
sg8
S'6499.08'
p3865
sa(dp3866
g5
I202
sg6
I01
sg7
I203
sg8
S'6499.2'
p3867
sa(dp3868
g5
I202
sg6
I01
sg7
I203
sg8
S'6499.32'
p3869
sa(dp3870
g5
I202
sg6
I01
sg7
I203
sg8
S'6499.2'
p3871
sa(dp3872
g5
I202
sg6
I01
sg7
I203
sg8
S'6499.32'
p3873
sa(dp3874
g5
I203
sg6
I01
sg7
I203
sg8
S'6499.2'
p3875
sa(dp3876
g5
I203
sg6
I01
sg7
I204
sg8
S'6499.08'
p3877
sa(dp3878
g5
I203
sg6
I01
sg7
I204
sg8
S'6499.2'
p3879
sa(dp3880
g5
I203
sg6
I01
sg7
I204
sg8
S'6499.32'
p3881
sa(dp3882
g5
I203
sg6
I01
sg7
I204
sg8
S'6499.2'
p3883
sa(dp3884
g5
I203
sg6
I01
sg7
I204
sg8
S'6499.08'
p3885
sa(dp3886
g5
I203
sg6
I01
sg7
I204
sg8
S'6499.2'
p3887
sa(dp3888
g5
I203
sg6
I01
sg7
I204
sg8
S'6499.08'
p3889
sa(dp3890
g5
I204
sg6
I01
sg7
I204
sg8
S'6499.2'
p3891
sa(dp3892
g5
I204
sg6
I01
sg7
I205
sg8
S'6499.32'
p3893
sa(dp3894
g5
I204
sg6
I01
sg7
I205
sg8
S'6499.2'
p3895
sa(dp3896
g5
I204
sg6
I01
sg7
I205
sg8
S'6499.08'
p3897
sa(dp3898
g5
I204
sg6
I01
sg7
I205
sg8
S'6499.2'
p3899
sa(dp3900
g5
I204
sg6
I01
sg7
I205
sg8
S'6499.08'
p3901
sa(dp3902
g5
I204
sg6
I01
sg7
I205
sg8
S'6499.2'
p3903
sa(dp3904
g5
I204
sg6
I01
sg7
I205
sg8
S'6499.08'
p3905
sa(dp3906
g5
I204
sg6
I01
sg7
I205
sg8
S'6499.2'
p3907
sa(dp3908
g5
I204
sg6
I01
sg7
I205
sg8
S'6499.08'
p3909
sa(dp3910
g5
I204
sg6
I01
sg7
I205
sg8
S'6499.32'
p3911
sa(dp3912
g5
I204
sg6
I01
sg7
I205
sg8
S'6499.2'
p3913
sa(dp3914
g5
I204
sg6
I01
sg7
I205
sg8
S'6499.32'
p3915
sa(dp3916
g5
I205
sg6
I01
sg7
I205
sg8
S'6499.2'
p3917
sa(dp3918
g5
I205
sg6
I01
sg7
I206
sg8
S'6499.08'
p3919
sa(dp3920
g5
I205
sg6
I01
sg7
I206
sg8
S'6499.2'
p3921
sa(dp3922
g5
I205
sg6
I01
sg7
I206
sg8
S'6499.32'
p3923
sa(dp3924
g5
I205
sg6
I01
sg7
I206
sg8
S'6499.2'
p3925
sa(dp3926
g5
I205
sg6
I01
sg7
I206
sg8
S'6499.32'
p3927
sa(dp3928
g5
I205
sg6
I01
sg7
I206
sg8
S'6499.08'
p3929
sa(dp3930
g5
I205
sg6
I01
sg7
I206
sg8
S'6499.2'
p3931
sa(dp3932
g5
I205
sg6
I01
sg7
I206
sg8
S'6499.32'
p3933
sa(dp3934
g5
I206
sg6
I01
sg7
I206
sg8
S'6499.2'
p3935
sa(dp3936
g5
I206
sg6
I01
sg7
I207
sg8
S'6499.32'
p3937
sa(dp3938
g5
I206
sg6
I01
sg7
I207
sg8
S'6499.2'
p3939
sa(dp3940
g5
I206
sg6
I01
sg7
I207
sg8
S'6499.32'
p3941
sa(dp3942
g5
I208
sg6
I01
sg7
I207
sg8
S'6499.2'
p3943
sa(dp3944
g5
I208
sg6
I01
sg7
I209
sg8
S'6499.32'
p3945
sa(dp3946
g5
I208
sg6
I01
sg7
I209
sg8
S'6499.2'
p3947
sa(dp3948
g5
I208
sg6
I01
sg7
I209
sg8
S'6499.32'
p3949
sa(dp3950
g5
I208
sg6
I01
sg7
I209
sg8
S'6499.2'
p3951
sa(dp3952
g5
I208
sg6
I01
sg7
I209
sg8
S'6499.32'
p3953
sa(dp3954
g5
I208
sg6
I01
sg7
I209
sg8
S'6499.2'
p3955
sa(dp3956
g5
I208
sg6
I01
sg7
I209
sg8
S'6499.08'
p3957
sa(dp3958
g5
I209
sg6
I01
sg7
I209
sg8
S'6499.2'
p3959
sa(dp3960
g5
I209
sg6
I01
sg7
I210
sg8
S'6499.32'
p3961
sa(dp3962
g5
I209
sg6
I01
sg7
I210
sg8
S'6499.08'
p3963
sa(dp3964
g5
I209
sg6
I01
sg7
I210
sg8
S'6499.2'
p3965
sa(dp3966
g5
I209
sg6
I01
sg7
I210
sg8
S'6499.08'
p3967
sa(dp3968
g5
I209
sg6
I01
sg7
I210
sg8
S'6499.2'
p3969
sa(dp3970
g5
I209
sg6
I01
sg7
I210
sg8
S'6499.08'
p3971
sa(dp3972
g5
I210
sg6
I01
sg7
I210
sg8
S'6499.2'
p3973
sa(dp3974
g5
I210
sg6
I01
sg7
I211
sg8
S'6499.08'
p3975
sa(dp3976
g5
I210
sg6
I01
sg7
I211
sg8
S'6499.2'
p3977
sa(dp3978
g5
I210
sg6
I01
sg7
I211
sg8
S'6499.08'
p3979
sa(dp3980
g5
I210
sg6
I01
sg7
I211
sg8
S'6499.2'
p3981
sa(dp3982
g5
I210
sg6
I01
sg7
I211
sg8
S'6499.08'
p3983
sa(dp3984
g5
I210
sg6
I01
sg7
I211
sg8
S'6499.2'
p3985
sa(dp3986
g5
I210
sg6
I01
sg7
I211
sg8
S'6499.32'
p3987
sa(dp3988
g5
I210
sg6
I01
sg7
I211
sg8
S'6499.2'
p3989
sa(dp3990
g5
I210
sg6
I01
sg7
I211
sg8
S'6499.32'
p3991
sa(dp3992
g5
I210
sg6
I01
sg7
I211
sg8
S'6499.2'
p3993
sa(dp3994
g5
I210
sg6
I01
sg7
I211
sg8
S'6499.08'
p3995
sa(dp3996
g5
I210
sg6
I01
sg7
I211
sg8
S'6499.2'
p3997
sa(dp3998
g5
I210
sg6
I01
sg7
I211
sg8
S'6499.32'
p3999
sa(dp4000
g5
L211L
sg6
I01
sg7
I211
sg8
S'6499.2'
p4001
sasS'Run'
p4002
L354826L
sS'Links'
p4003
S''
p4004
sS'#Events'
p4005
(lp4006
(dp4007
g5
L211L
sg6
I01
sg7
I1
sg8
I26760699
sasS'olc:beam2intensity'
p4008
(lp4009
(dp4010
g5
I1
sg6
I01
sg7
I1
sg8
S'74.5656'
p4011
sa(dp4012
g5
I2
sg6
I01
sg7
I2
sg8
S'74.5579'
p4013
sa(dp4014
g5
I3
sg6
I01
sg7
I3
sg8
S'74.5546'
p4015
sa(dp4016
g5
I4
sg6
I01
sg7
I4
sg8
S'74.5502'
p4017
sa(dp4018
g5
I5
sg6
I01
sg7
I5
sg8
S'74.5506'
p4019
sa(dp4020
g5
I6
sg6
I01
sg7
I6
sg8
S'72.8992'
p4021
sa(dp4022
g5
I7
sg6
I01
sg7
I7
sg8
S'72.8942'
p4023
sa(dp4024
g5
I8
sg6
I01
sg7
I8
sg8
S'72.891'
p4025
sa(dp4026
g5
I9
sg6
I01
sg7
I9
sg8
S'72.8858'
p4027
sa(dp4028
g5
I10
sg6
I01
sg7
I10
sg8
S'72.8795'
p4029
sa(dp4030
g5
I11
sg6
I01
sg7
I11
sg8
S'72.8744'
p4031
sa(dp4032
g5
I12
sg6
I01
sg7
I12
sg8
S'72.8672'
p4033
sa(dp4034
g5
I13
sg6
I01
sg7
I13
sg8
S'72.8587'
p4035
sa(dp4036
g5
I14
sg6
I01
sg7
I14
sg8
S'72.8498'
p4037
sa(dp4038
g5
I15
sg6
I01
sg7
I15
sg8
S'72.8427'
p4039
sa(dp4040
g5
I16
sg6
I01
sg7
I16
sg8
S'72.8382'
p4041
sa(dp4042
g5
I17
sg6
I01
sg7
I17
sg8
S'72.8307'
p4043
sa(dp4044
g5
I18
sg6
I01
sg7
I18
sg8
S'72.8229'
p4045
sa(dp4046
g5
I19
sg6
I01
sg7
I19
sg8
S'72.8177'
p4047
sa(dp4048
g5
I20
sg6
I01
sg7
I20
sg8
S'72.8062'
p4049
sa(dp4050
g5
I21
sg6
I01
sg7
I21
sg8
S'72.8003'
p4051
sa(dp4052
g5
I22
sg6
I01
sg7
I22
sg8
S'72.7969'
p4053
sa(dp4054
g5
I23
sg6
I01
sg7
I23
sg8
S'72.7934'
p4055
sa(dp4056
g5
I24
sg6
I01
sg7
I24
sg8
S'72.7887'
p4057
sa(dp4058
g5
I25
sg6
I01
sg7
I25
sg8
S'72.7806'
p4059
sa(dp4060
g5
I26
sg6
I01
sg7
I26
sg8
S'72.7746'
p4061
sa(dp4062
g5
I27
sg6
I01
sg7
I27
sg8
S'72.7678'
p4063
sa(dp4064
g5
I28
sg6
I01
sg7
I28
sg8
S'72.7612'
p4065
sa(dp4066
g5
I29
sg6
I01
sg7
I29
sg8
S'72.7579'
p4067
sa(dp4068
g5
I30
sg6
I01
sg7
I30
sg8
S'72.7572'
p4069
sa(dp4070
g5
I31
sg6
I01
sg7
I31
sg8
S'72.7556'
p4071
sa(dp4072
g5
I32
sg6
I01
sg7
I32
sg8
S'72.7506'
p4073
sa(dp4074
g5
I33
sg6
I01
sg7
I33
sg8
S'72.7452'
p4075
sa(dp4076
g5
I34
sg6
I01
sg7
I34
sg8
S'72.7402'
p4077
sa(dp4078
g5
I35
sg6
I01
sg7
I35
sg8
S'72.7334'
p4079
sa(dp4080
g5
I36
sg6
I01
sg7
I36
sg8
S'72.7317'
p4081
sa(dp4082
g5
I37
sg6
I01
sg7
I37
sg8
S'72.7298'
p4083
sa(dp4084
g5
I38
sg6
I01
sg7
I38
sg8
S'72.7225'
p4085
sa(dp4086
g5
I39
sg6
I01
sg7
I39
sg8
S'72.7191'
p4087
sa(dp4088
g5
I40
sg6
I01
sg7
I40
sg8
S'72.7119'
p4089
sa(dp4090
g5
I41
sg6
I01
sg7
I41
sg8
S'72.7055'
p4091
sa(dp4092
g5
I42
sg6
I01
sg7
I42
sg8
S'72.7011'
p4093
sa(dp4094
g5
I43
sg6
I01
sg7
I43
sg8
S'72.6946'
p4095
sa(dp4096
g5
I44
sg6
I01
sg7
I44
sg8
S'72.6923'
p4097
sa(dp4098
g5
I45
sg6
I01
sg7
I45
sg8
S'72.6867'
p4099
sa(dp4100
g5
I46
sg6
I01
sg7
I46
sg8
S'72.6778'
p4101
sa(dp4102
g5
I47
sg6
I01
sg7
I47
sg8
S'72.6678'
p4103
sa(dp4104
g5
I48
sg6
I01
sg7
I48
sg8
S'72.6554'
p4105
sa(dp4106
g5
I49
sg6
I01
sg7
I49
sg8
S'72.6536'
p4107
sa(dp4108
g5
I50
sg6
I01
sg7
I50
sg8
S'72.6515'
p4109
sa(dp4110
g5
I51
sg6
I01
sg7
I51
sg8
S'72.6491'
p4111
sa(dp4112
g5
I52
sg6
I01
sg7
I52
sg8
S'72.6498'
p4113
sa(dp4114
g5
I53
sg6
I01
sg7
I53
sg8
S'72.6477'
p4115
sa(dp4116
g5
I54
sg6
I01
sg7
I54
sg8
S'72.6454'
p4117
sa(dp4118
g5
I55
sg6
I01
sg7
I55
sg8
S'72.6456'
p4119
sa(dp4120
g5
I56
sg6
I01
sg7
I56
sg8
S'72.6445'
p4121
sa(dp4122
g5
I57
sg6
I01
sg7
I57
sg8
S'72.6437'
p4123
sa(dp4124
g5
I58
sg6
I01
sg7
I58
sg8
S'72.6434'
p4125
sa(dp4126
g5
I59
sg6
I01
sg7
I59
sg8
S'72.6417'
p4127
sa(dp4128
g5
I60
sg6
I01
sg7
I60
sg8
S'72.6408'
p4129
sa(dp4130
g5
I61
sg6
I01
sg7
I61
sg8
S'72.6402'
p4131
sa(dp4132
g5
I62
sg6
I01
sg7
I62
sg8
S'72.6369'
p4133
sa(dp4134
g5
I63
sg6
I01
sg7
I63
sg8
S'72.6342'
p4135
sa(dp4136
g5
I64
sg6
I01
sg7
I64
sg8
S'72.631'
p4137
sa(dp4138
g5
I65
sg6
I01
sg7
I65
sg8
S'72.6226'
p4139
sa(dp4140
g5
I66
sg6
I01
sg7
I66
sg8
S'72.62'
p4141
sa(dp4142
g5
I67
sg6
I01
sg7
I67
sg8
S'72.6184'
p4143
sa(dp4144
g5
I68
sg6
I01
sg7
I68
sg8
S'72.6154'
p4145
sa(dp4146
g5
I69
sg6
I01
sg7
I69
sg8
S'72.6117'
p4147
sa(dp4148
g5
I70
sg6
I01
sg7
I70
sg8
S'72.6073'
p4149
sa(dp4150
g5
I71
sg6
I01
sg7
I71
sg8
S'72.6057'
p4151
sa(dp4152
g5
I72
sg6
I01
sg7
I72
sg8
S'72.6025'
p4153
sa(dp4154
g5
I73
sg6
I01
sg7
I73
sg8
S'72.5995'
p4155
sa(dp4156
g5
I74
sg6
I01
sg7
I74
sg8
S'72.5975'
p4157
sa(dp4158
g5
I75
sg6
I01
sg7
I75
sg8
S'72.5944'
p4159
sa(dp4160
g5
I76
sg6
I01
sg7
I76
sg8
S'72.5887'
p4161
sa(dp4162
g5
I77
sg6
I01
sg7
I77
sg8
S'72.5854'
p4163
sa(dp4164
g5
I78
sg6
I01
sg7
I78
sg8
S'72.5832'
p4165
sa(dp4166
g5
I79
sg6
I01
sg7
I79
sg8
S'72.5805'
p4167
sa(dp4168
g5
I80
sg6
I01
sg7
I80
sg8
S'72.5792'
p4169
sa(dp4170
g5
I81
sg6
I01
sg7
I81
sg8
S'72.5749'
p4171
sa(dp4172
g5
I82
sg6
I01
sg7
I82
sg8
S'72.5741'
p4173
sa(dp4174
g5
I83
sg6
I01
sg7
I83
sg8
S'72.5693'
p4175
sa(dp4176
g5
I84
sg6
I01
sg7
I84
sg8
S'72.5535'
p4177
sa(dp4178
g5
I85
sg6
I01
sg7
I85
sg8
S'72.5446'
p4179
sa(dp4180
g5
I86
sg6
I01
sg7
I86
sg8
S'72.5378'
p4181
sa(dp4182
g5
I87
sg6
I01
sg7
I87
sg8
S'72.5255'
p4183
sa(dp4184
g5
I88
sg6
I01
sg7
I88
sg8
S'72.5223'
p4185
sa(dp4186
g5
I89
sg6
I01
sg7
I89
sg8
S'72.5188'
p4187
sa(dp4188
g5
I90
sg6
I01
sg7
I90
sg8
S'72.5151'
p4189
sa(dp4190
g5
I91
sg6
I01
sg7
I91
sg8
S'72.5141'
p4191
sa(dp4192
g5
I92
sg6
I01
sg7
I92
sg8
S'72.5124'
p4193
sa(dp4194
g5
I93
sg6
I01
sg7
I93
sg8
S'72.5129'
p4195
sa(dp4196
g5
I94
sg6
I01
sg7
I94
sg8
S'72.511'
p4197
sa(dp4198
g5
I95
sg6
I01
sg7
I95
sg8
S'72.5106'
p4199
sa(dp4200
g5
I96
sg6
I01
sg7
I96
sg8
S'72.5079'
p4201
sa(dp4202
g5
I97
sg6
I01
sg7
I97
sg8
S'72.5074'
p4203
sa(dp4204
g5
I98
sg6
I01
sg7
I98
sg8
S'72.5063'
p4205
sa(dp4206
g5
I99
sg6
I01
sg7
I99
sg8
S'72.5045'
p4207
sa(dp4208
g5
I100
sg6
I01
sg7
I100
sg8
S'72.5022'
p4209
sa(dp4210
g5
I101
sg6
I01
sg7
I101
sg8
S'72.4996'
p4211
sa(dp4212
g5
I102
sg6
I01
sg7
I102
sg8
S'72.4967'
p4213
sa(dp4214
g5
I103
sg6
I01
sg7
I103
sg8
S'72.4935'
p4215
sa(dp4216
g5
I104
sg6
I01
sg7
I104
sg8
S'72.4851'
p4217
sa(dp4218
g5
I105
sg6
I01
sg7
I105
sg8
S'72.4809'
p4219
sa(dp4220
g5
I106
sg6
I01
sg7
I106
sg8
S'72.4798'
p4221
sa(dp4222
g5
I107
sg6
I01
sg7
I107
sg8
S'72.4803'
p4223
sa(dp4224
g5
I108
sg6
I01
sg7
I108
sg8
S'72.4774'
p4225
sa(dp4226
g5
I109
sg6
I01
sg7
I109
sg8
S'72.4742'
p4227
sa(dp4228
g5
I110
sg6
I01
sg7
I110
sg8
S'72.4719'
p4229
sa(dp4230
g5
I111
sg6
I01
sg7
I111
sg8
S'72.4694'
p4231
sa(dp4232
g5
I112
sg6
I01
sg7
I112
sg8
S'72.4638'
p4233
sa(dp4234
g5
I113
sg6
I01
sg7
I113
sg8
S'72.4607'
p4235
sa(dp4236
g5
I114
sg6
I01
sg7
I114
sg8
S'72.4579'
p4237
sa(dp4238
g5
I115
sg6
I01
sg7
I115
sg8
S'72.4547'
p4239
sa(dp4240
g5
I116
sg6
I01
sg7
I116
sg8
S'72.4507'
p4241
sa(dp4242
g5
I117
sg6
I01
sg7
I117
sg8
S'72.4497'
p4243
sa(dp4244
g5
I118
sg6
I01
sg7
I118
sg8
S'72.4465'
p4245
sa(dp4246
g5
I119
sg6
I01
sg7
I119
sg8
S'72.4432'
p4247
sa(dp4248
g5
I120
sg6
I01
sg7
I120
sg8
S'72.4447'
p4249
sa(dp4250
g5
I121
sg6
I01
sg7
I121
sg8
S'72.442'
p4251
sa(dp4252
g5
I122
sg6
I01
sg7
I122
sg8
S'72.4384'
p4253
sa(dp4254
g5
I123
sg6
I01
sg7
I123
sg8
S'72.4288'
p4255
sa(dp4256
g5
I124
sg6
I01
sg7
I124
sg8
S'72.4223'
p4257
sa(dp4258
g5
I125
sg6
I01
sg7
I125
sg8
S'72.4167'
p4259
sa(dp4260
g5
I126
sg6
I01
sg7
I126
sg8
S'72.41'
p4261
sa(dp4262
g5
I127
sg6
I01
sg7
I127
sg8
S'72.4043'
p4263
sa(dp4264
g5
I128
sg6
I01
sg7
I128
sg8
S'72.398'
p4265
sa(dp4266
g5
I129
sg6
I01
sg7
I129
sg8
S'72.3925'
p4267
sa(dp4268
g5
I130
sg6
I01
sg7
I130
sg8
S'72.3872'
p4269
sa(dp4270
g5
I131
sg6
I01
sg7
I131
sg8
S'72.3804'
p4271
sa(dp4272
g5
I132
sg6
I01
sg7
I132
sg8
S'72.3738'
p4273
sa(dp4274
g5
I133
sg6
I01
sg7
I133
sg8
S'72.369'
p4275
sa(dp4276
g5
I134
sg6
I01
sg7
I134
sg8
S'72.3582'
p4277
sa(dp4278
g5
I135
sg6
I01
sg7
I135
sg8
S'72.3475'
p4279
sa(dp4280
g5
I136
sg6
I01
sg7
I136
sg8
S'72.3384'
p4281
sa(dp4282
g5
I137
sg6
I01
sg7
I137
sg8
S'72.3132'
p4283
sa(dp4284
g5
I138
sg6
I01
sg7
I138
sg8
S'72.2939'
p4285
sa(dp4286
g5
I139
sg6
I01
sg7
I139
sg8
S'72.2828'
p4287
sa(dp4288
g5
I140
sg6
I01
sg7
I140
sg8
S'72.2726'
p4289
sa(dp4290
g5
I141
sg6
I01
sg7
I141
sg8
S'72.2666'
p4291
sa(dp4292
g5
I142
sg6
I01
sg7
I142
sg8
S'72.2585'
p4293
sa(dp4294
g5
I143
sg6
I01
sg7
I143
sg8
S'72.2551'
p4295
sa(dp4296
g5
I144
sg6
I01
sg7
I144
sg8
S'72.2505'
p4297
sa(dp4298
g5
I145
sg6
I01
sg7
I145
sg8
S'72.2421'
p4299
sa(dp4300
g5
I146
sg6
I01
sg7
I146
sg8
S'72.2355'
p4301
sa(dp4302
g5
I147
sg6
I01
sg7
I147
sg8
S'72.2307'
p4303
sa(dp4304
g5
I148
sg6
I01
sg7
I148
sg8
S'72.2272'
p4305
sa(dp4306
g5
I149
sg6
I01
sg7
I149
sg8
S'72.2211'
p4307
sa(dp4308
g5
I150
sg6
I01
sg7
I150
sg8
S'72.2183'
p4309
sa(dp4310
g5
I151
sg6
I01
sg7
I151
sg8
S'72.2126'
p4311
sa(dp4312
g5
I152
sg6
I01
sg7
I152
sg8
S'72.2077'
p4313
sa(dp4314
g5
I153
sg6
I01
sg7
I153
sg8
S'72.2006'
p4315
sa(dp4316
g5
I154
sg6
I01
sg7
I154
sg8
S'72.1965'
p4317
sa(dp4318
g5
I155
sg6
I01
sg7
I155
sg8
S'72.1906'
p4319
sa(dp4320
g5
I156
sg6
I01
sg7
I156
sg8
S'72.1845'
p4321
sa(dp4322
g5
I157
sg6
I01
sg7
I157
sg8
S'72.1797'
p4323
sa(dp4324
g5
I158
sg6
I01
sg7
I158
sg8
S'72.1739'
p4325
sa(dp4326
g5
I159
sg6
I01
sg7
I159
sg8
S'72.1708'
p4327
sa(dp4328
g5
I160
sg6
I01
sg7
I160
sg8
S'72.1654'
p4329
sa(dp4330
g5
I161
sg6
I01
sg7
I161
sg8
S'72.1585'
p4331
sa(dp4332
g5
I162
sg6
I01
sg7
I162
sg8
S'72.1506'
p4333
sa(dp4334
g5
I163
sg6
I01
sg7
I163
sg8
S'72.1457'
p4335
sa(dp4336
g5
I164
sg6
I01
sg7
I164
sg8
S'72.1402'
p4337
sa(dp4338
g5
I165
sg6
I01
sg7
I165
sg8
S'72.1332'
p4339
sa(dp4340
g5
I166
sg6
I01
sg7
I166
sg8
S'72.1268'
p4341
sa(dp4342
g5
I167
sg6
I01
sg7
I167
sg8
S'72.1222'
p4343
sa(dp4344
g5
I168
sg6
I01
sg7
I168
sg8
S'72.1165'
p4345
sa(dp4346
g5
I169
sg6
I01
sg7
I169
sg8
S'72.109'
p4347
sa(dp4348
g5
I170
sg6
I01
sg7
I170
sg8
S'72.1037'
p4349
sa(dp4350
g5
I171
sg6
I01
sg7
I171
sg8
S'72.0978'
p4351
sa(dp4352
g5
I172
sg6
I01
sg7
I172
sg8
S'72.0939'
p4353
sa(dp4354
g5
I173
sg6
I01
sg7
I173
sg8
S'72.0874'
p4355
sa(dp4356
g5
I174
sg6
I01
sg7
I174
sg8
S'72.0843'
p4357
sa(dp4358
g5
I175
sg6
I01
sg7
I175
sg8
S'72.0762'
p4359
sa(dp4360
g5
I176
sg6
I01
sg7
I176
sg8
S'72.0691'
p4361
sa(dp4362
g5
I177
sg6
I01
sg7
I177
sg8
S'72.0635'
p4363
sa(dp4364
g5
I178
sg6
I01
sg7
I178
sg8
S'72.0575'
p4365
sa(dp4366
g5
I179
sg6
I01
sg7
I179
sg8
S'72.0525'
p4367
sa(dp4368
g5
I180
sg6
I01
sg7
I180
sg8
S'72.0461'
p4369
sa(dp4370
g5
I181
sg6
I01
sg7
I181
sg8
S'72.0406'
p4371
sa(dp4372
g5
I182
sg6
I01
sg7
I182
sg8
S'72.0343'
p4373
sa(dp4374
g5
I183
sg6
I01
sg7
I183
sg8
S'72.0276'
p4375
sa(dp4376
g5
I184
sg6
I01
sg7
I184
sg8
S'72.0251'
p4377
sa(dp4378
g5
I185
sg6
I01
sg7
I185
sg8
S'72.0181'
p4379
sa(dp4380
g5
I186
sg6
I01
sg7
I186
sg8
S'72.0126'
p4381
sa(dp4382
g5
I187
sg6
I01
sg7
I187
sg8
S'72.0065'
p4383
sa(dp4384
g5
I188
sg6
I01
sg7
I188
sg8
S'71.9999'
p4385
sa(dp4386
g5
I189
sg6
I01
sg7
I189
sg8
S'71.9948'
p4387
sa(dp4388
g5
I190
sg6
I01
sg7
I190
sg8
S'71.9881'
p4389
sa(dp4390
g5
I191
sg6
I01
sg7
I191
sg8
S'71.9813'
p4391
sa(dp4392
g5
I192
sg6
I01
sg7
I192
sg8
S'71.9757'
p4393
sa(dp4394
g5
I193
sg6
I01
sg7
I193
sg8
S'71.97'
p4395
sa(dp4396
g5
I194
sg6
I01
sg7
I194
sg8
S'71.9656'
p4397
sa(dp4398
g5
I195
sg6
I01
sg7
I195
sg8
S'71.9595'
p4399
sa(dp4400
g5
I196
sg6
I01
sg7
I196
sg8
S'71.9519'
p4401
sa(dp4402
g5
I197
sg6
I01
sg7
I197
sg8
S'71.9449'
p4403
sa(dp4404
g5
I198
sg6
I01
sg7
I198
sg8
S'71.9403'
p4405
sa(dp4406
g5
I199
sg6
I01
sg7
I199
sg8
S'71.9344'
p4407
sa(dp4408
g5
I200
sg6
I01
sg7
I200
sg8
S'71.9284'
p4409
sa(dp4410
g5
I201
sg6
I01
sg7
I201
sg8
S'71.921'
p4411
sa(dp4412
g5
I202
sg6
I01
sg7
I202
sg8
S'71.9148'
p4413
sa(dp4414
g5
I203
sg6
I01
sg7
I203
sg8
S'71.9084'
p4415
sa(dp4416
g5
I204
sg6
I01
sg7
I204
sg8
S'71.9015'
p4417
sa(dp4418
g5
I205
sg6
I01
sg7
I205
sg8
S'71.8967'
p4419
sa(dp4420
g5
I206
sg6
I01
sg7
I206
sg8
S'71.8909'
p4421
sa(dp4422
g5
I207
sg6
I01
sg7
I207
sg8
S'71.889'
p4423
sa(dp4424
g5
I208
sg6
I01
sg7
I208
sg8
S'0.76724'
p4425
sa(dp4426
g5
L211L
sg6
I01
sg7
I209
sg8
S'0'
p4427
sasS'olc:collbunches'
p4428
(lp4429
(dp4430
g5
I208
sg6
I01
sg7
I1
sg8
S'84'
p4431
sa(dp4432
g5
L211L
sg6
I01
sg7
I209
sg8
g4427
sasS'#LB'
p4433
(L211L
(lp4434
F0.0
aF60.10206109000001
aF85.545095075
aF107.726188265
aF118.222092055
aF128.53443240500002
aF153.35608912
aF163.70627340500002
aF181.37002977
aF241.67737708
aF253.099385675
aF313.54730101
aF373.69097341
aF433.80302638
aF493.95252384500003
aF554.0587824500001
aF564.245633255
aF624.515883895
aF684.670741525
aF744.79772127
aF804.9075067
aF862.006839205
aF922.186891315
aF932.5169018600001
aF992.8522951250001
aF1052.96760234
aF1113.1338110400002
aF1173.2453106
aF1233.35659452
aF1259.6481215850001
aF1262.9346482600001
aF1271.7989633900002
aF1332.07354164
aF1392.18665458
aF1452.3027849750001
aF1512.42069902
aF1517.685867995
aF1530.527295365
aF1590.9553763000001
aF1651.05193529
aF1711.23253038
aF1771.33953448
aF1831.6919601450002
aF1891.79834467
aF1951.91060917
aF2012.0293110750001
aF2061.87525838
aF2086.05443311
aF2095.0630515450002
aF2106.18002312
aF2115.19171132
aF2126.31148626
aF2135.312629305
aF2146.436545815
aF2155.438672795
aF2166.5659268950003
aF2175.568216535
aF2186.7009642350004
aF2195.7049134450003
aF2207.121897435
aF2216.133007535
aF2227.5763831450004
aF2236.58061335
aF2248.00640912
aF2257.0189513150003
aF2341.201972235
aF2350.205510705
aF2367.623543915
aF2376.634924775
aF2394.06854067
aF2403.0684136
aF2420.4984977450003
aF2429.522799595
aF2446.92952862
aF2455.94685173
aF2473.67259236
aF2482.6862797450003
aF2500.1146939100004
aF2509.123848645
aF2526.54460448
aF2535.5481265850003
aF2552.969786565
aF2561.9811990400003
aF2618.3259993
aF2678.609318795
aF2722.43576393
aF2746.4112861400004
aF2755.417203815
aF2766.5541186
aF2775.5679225050003
aF2786.686101175
aF2795.69583422
aF2807.1252516950003
aF2816.1267727500003
aF2827.546584015
aF2836.551772155
aF2847.98210939
aF2856.9833101550003
aF2868.41559035
aF2877.418279175
aF2888.54136853
aF2897.5507833250003
aF2908.993480855
aF2917.996588455
aF3001.64354056
aF3010.6590710600003
aF3028.0768587850002
aF3037.0896097950003
aF3055.11243847
aF3064.11846311
aF3081.526966465
aF3090.534799635
aF3108.1707634450004
aF3116.963608415
aF3134.3874713650002
aF3143.4097460000003
aF3161.11164825
aF3170.1225371650003
aF3187.55485051
aF3196.5564789550003
aF3213.9944366600002
aF3222.99563872
aF3279.2358322050004
aF3339.6499610600004
aF3399.7607712950003
aF3459.8803741600004
aF3504.118864635
aF3564.42634489
aF3624.5375674250004
aF3684.65274189
aF3744.76938917
aF3804.922958905
aF3865.0347261700003
aF3925.1721008800005
aF3985.564440045
aF4045.716723595
aF4105.830366855001
aF4165.94306289
aF4226.095720775001
aF4286.2072327450005
aF4346.36508939
aF4406.483175335
aF4466.58328357
aF4526.701595115001
aF4586.81199751
aF4646.92672258
aF4707.029423700001
aF4767.15126607
aF4827.26299089
aF4887.389239380001
aF4947.50367781
aF5007.617242695001
aF5067.72134204
aF5127.84046878
aF5187.950461135
aF5248.071384885
aF5308.18196644
aF5368.29986143
aF5428.419652935
aF5488.90429563
aF5549.017959815001
aF5609.129388295
aF5669.2944995200005
aF5729.46695942
aF5789.616461465001
aF5849.78434892
aF5909.898566170001
aF5970.021633300001
aF6030.1777176000005
aF6090.2928087400005
aF6150.64833358
aF6210.758366235001
aF6270.876008125
aF6330.998325115001
aF6391.162371900001
aF6451.2767773000005
aF6511.398929865
aF6571.515338650001
aF6631.6397011750005
aF6691.756439555001
aF6751.871873720001
aF6811.970471655
aF6872.122650835
aF6932.228855165001
aF6992.344134285
aF7052.467875375
aF7112.585130730001
aF7172.688963615001
aF7233.04158772
aF7293.147849235001
aF7353.255514645
aF7413.368195505001
aF7473.4873212150005
aF7533.604631550001
aF7593.7121974500005
aF7653.83825992
aF7713.946391445001
aF7774.063962635
aF7834.176459665
aF7894.340745605001
aF7954.45713976
aF8014.62532644
aF8074.76907664
aF8134.883874945001
aF8195.005810915001
aF8255.119181165
aF8315.239004255001
aF8331.83401893
aF8392.38524309
aF8451.1025118
aF8511.37488072
aF8554.008446984
atp4435
sS'lhc:stablebeams'
p4436
(lp4437
(dp4438
g5
I208
sg6
I01
sg7
I1
sg8
S'TRUE'
p4439
sa(dp4440
g5
L211L
sg6
I01
sg7
I209
sg8
S'FALSE'
p4441
sasS'olc:beam1bunches'
p4442
(lp4443
(dp4444
g5
I208
sg6
I01
sg7
I1
sg8
S'86'
p4445
sa(dp4446
g5
L211L
sg6
I01
sg7
I209
sg8
g4427
sasS'olc:beam2bunches'
p4447
(lp4448
(dp4449
g5
I208
sg6
I01
sg7
I1
sg8
S'86'
p4450
sa(dp4451
g5
I210
sg6
I01
sg7
I209
sg8
g4427
sa(dp4452
g5
L211L
sg6
I01
sg7
I211
sg8
S'1'
p4453
sasS'olc:bcidmask'
p4454
(lp4455
(dp4456
g5
I208
sg6
I01
sg7
I1
sg8
S'\x00\x00\x00\x00\x00\x00\x00\x01\x00\x00\x00\x00\x02\x00\x00\x00\x00\x00\x00\x00\x00\x00\x00\x00\x00\x00\x00\x00\x00\x00\x00\x00\x00\x00\x00\x00\x00\x00\x00\x01\x00\x00\x00\x00\x02\x00\x00\x00\x00\x00\x00\x00\x00\x00\x00\x00\x00\x00\x00\x00\x00\x00\x00\x00\x00\x00\x00\x00\x00\x00\x00\x00\x00\x00\x00\x00\x00\x00\x00\x00\x00\x00\x00\x00\x00\x00\x00\x00\x00\x00\x00\x00\x00\x00\x00\x00\x00\x00\x00\x00\x00\x00\x00\x00\x00\x00\x03\x00\x00\x00\x03\x00\x00\x00\x03\x00\x00\x00\x03\x00\x00\x00\x03\x00\x00\x00\x03\x00\x00\x00\x03\x00\x00\x00\x03\x00\x00\x00\x03\x00\x00\x00\x03\x00\x00\x00\x03\x00\x00\x00\x03\x00\x00\x00\x00\x00\x00\x00\x00\x00\x00\x00\x00\x00\x00\x00\x00\x00\x00\x00\x00\x00\x00\x00\x00\x00\x00\x00\x00\x00\x00\x00\x00\x00\x00\x00\x00\x00\x00\x00\x00\x00\x00\x00\x00\x00\x00\x00\x00\x00\x00\x00\x00\x00\x00\x00\x00\x00\x00\x00\x00\x00\x00\x00\x00\x00\x00\x00\x00\x00\x00\x00\x00\x00\x00\x00\x00\x00\x00\x00\x00\x00\x00\x00\x00\x00\x00\x00\x00\x00\x00\x00\x00\x00\x00\x00\x00\x00\x00\x00\x00\x00\x00\x00\x00\x00\x00\x00\x00\x00\x00\x00\x00\x00\x00\x00\x00\x00\x00\x00\x00\x00\x00\x00\x00\x00\x00\x00\x00\x00\x00\x00\x00\x00\x00\x00\x00\x00\x00\x00\x00\x00\x00\x00\x00\x00\x00\x00\x00\x00\x00\x00\x00\x00\x00\x00\x00\x03\x00\x00\x00\x03\x00\x00\x00\x03\x00\x00\x00\x03\x00\x00\x00\x03\x00\x00\x00\x03\x00\x00\x00\x03\x00\x00\x00\x03\x00\x00\x00\x03\x00\x00\x00\x03\x00\x00\x00\x03\x00\x00\x00\x03\x00\x00\x00\x03\x00\x00\x00\x03\x00\x00\x00\x03\x00\x00\x00\x03\x00\x00\x00\x03\x00\x00\x00\x03\x00\x00\x00\x00\x00\x00\x00\x00\x00\x00\x00\x00\x00\x00\x00\x00\x00\x00\x00\x00\x00\x00\x00\x00\x00\x00\x00\x00\x00\x00\x00\x00\x00\x00\x00\x00\x00\x00\x00\x00\x00\x00\x00\x00\x00\x00\x00\x00\x00\x00\x00\x00\x00\x00\x00\x00\x00\x00\x00\x00\x00\x00\x00\x00\x00\x00\x00\x00\x00\x00\x00\x00\x00\x00\x00\x00\x00\x00\x00\x00\x00\x00\x00\x00\x00\x00\x00\x00\x00\x00\x00\x00\x00\x00\x00\x00\x00\x00\x00\x00\x00\x00\x00\x00\x00\x00\x00\x00\x00\x00\x00\x00\x00\x00\x00\x00\x00\x00\x00\x00\x00\x00\x00\x00\x00\x00\x00\x00\x00\x00\x00\x00\x00\x00\x00\x00\x00\x00\x00\x00\x00\x00\x00\x00\x00\x00\x00\x00\x00\x00\x00\x00\x00\x00\x00\x00\x00\x00\x00\x00\x00\x00\x00\x00\x00\x00\x00\x00\x00\x00\x00\x00\x00\x00\x00\x00\x00\x00\x00\x00\x00\x00\x00\x00\x00\x00\x00\x00\x00\x00\x00\x00\x00\x00\x00\x00\x00\x00\x00\x00\x00\x00\x00\x00\x00\x00\x00\x00\x00\x00\x00\x00\x00\x00\x00\x00\x00\x00\x00\x00\x00\x00\x00\x00\x00\x00\x00\x00\x00\x00\x00\x00\x00\x00\x00\x00\x00\x00\x00\x00\x00\x00\x00\x00\x00\x00\x00\x00\x00\x00\x00\x00\x00\x00\x00\x00\x00\x00\x00\x00\x00\x00\x00\x00\x00\x00\x00\x00\x00\x00\x00\x00\x00\x00\x00\x00\x00\x00\x00\x00\x00\x00\x00\x00\x00\x00\x00\x00\x00\x00\x00\x00\x00\x00\x00\x00\x00\x00\x00\x00\x00\x00\x00\x00\x00\x00\x00\x00\x00\x00\x00\x00\x00\x00\x00\x00\x00\x00\x00\x00\x00\x00\x00\x00\x00\x00\x00\x00\x00\x00\x00\x00\x00\x00\x00\x00\x00\x00\x00\x00\x00\x00\x00\x00\x00\x00\x00\x00\x00\x00\x00\x00\x00\x00\x00\x00\x00\x00\x00\x00\x00\x00\x00\x00\x00\x00\x00\x00\x00\x00\x00\x00\x00\x00\x00\x00\x00\x00\x00\x00\x00\x00\x00\x00\x00\x00\x00\x00\x00\x00\x00\x00\x00\x00\x00\x00\x00\x00\x00\x00\x00\x00\x00\x00\x00\x00\x00\x00\x00\x00\x00\x00\x00\x00\x00\x00\x00\x00\x00\x00\x00\x00\x00\x00\x00\x00\x00\x00\x00\x00\x00\x00\x00\x00\x00\x00\x00\x00\x00\x00\x00\x00\x00\x00\x00\x00\x00\x00\x00\x00\x00\x00\x00\x00\x00\x00\x00\x00\x00\x00\x00\x00\x00\x00\x00\x00\x00\x00\x00\x00\x00\x00\x00\x00\x00\x00\x00\x00\x00\x00\x00\x00\x00\x00\x00\x00\x00\x00\x00\x00\x00\x00\x00\x00\x00\x00\x00\x00\x00\x00\x00\x00\x00\x00\x00\x00\x00\x00\x00\x00\x00\x00\x00\x00\x00\x00\x00\x00\x00\x00\x00\x00\x00\x00\x00\x00\x00\x00\x00\x00\x00\x00\x00\x00\x00\x00\x00\x00\x00\x00\x00\x00\x00\x00\x00\x00\x00\x00\x00\x00\x00\x00\x00\x00\x00\x00\x00\x00\x00\x00\x00\x00\x00\x00\x00\x00\x00\x00\x00\x00\x00\x00\x00\x00\x00\x00\x00\x00\x00\x00\x00\x00\x00\x00\x00\x00\x00\x00\x00\x00\x00\x00\x00\x00\x00\x00\x00\x00\x00\x00\x00\x00\x00\x00\x00\x00\x00\x00\x00\x00\x00\x00\x00\x00\x00\x00\x00\x00\x00\x00\x00\x00\x00\x00\x00\x00\x00\x00\x00\x00\x00\x00\x00\x00\x00\x00\x00\x00\x00\x00\x00\x00\x00\x00\x00\x00\x00\x00\x00\x00\x00\x00\x00\x00\x00\x00\x00\x00\x00\x00\x00\x00\x00\x00\x00\x00\x00\x00\x00\x00\x00\x00\x00\x00\x00\x00\x00\x00\x00\x00\x00\x00\x00\x00\x00\x00\x00\x00\x00\x00\x00\x00\x00\x00\x00\x00\x00\x00\x00\x00\x00\x00\x00\x00\x00\x00\x00\x00\x00\x00\x00\x00\x00\x00\x00\x00\x00\x00\x00\x00\x00\x00\x00\x00\x00\x00\x00\x00\x00\x00\x00\x00\x00\x00\x00\x00\x00\x00\x00\x00\x00\x00\x00\x00\x00\x00\x00\x00\x00\x00\x00\x00\x00\x00\x00\x00\x00\x00\x00\x00\x00\x00\x00\x00\x00\x00\x00\x00\x00\x00\x00\x00\x00\x00\x00\x00\x00\x00\x00\x00\x00\x00\x00\x00\x00\x00\x00\x00\x00\x00\x00\x00\x00\x00\x00\x00\x00\x00\x00\x00\x00\x00\x00\x00\x00\x00\x00\x00\x00\x00\x00\x00\x00\x00\x00\x00\x00\x00\x00\x00\x00\x00\x00\x00\x03\x00\x00\x00\x03\x00\x00\x00\x03\x00\x00\x00\x03\x00\x00\x00\x03\x00\x00\x00\x03\x00\x00\x00\x03\x00\x00\x00\x03\x00\x00\x00\x03\x00\x00\x00\x03\x00\x00\x00\x03\x00\x00\x00\x03\x00\x00\x00\x03\x00\x00\x00\x03\x00\x00\x00\x03\x00\x00\x00\x03\x00\x00\x00\x03\x00\x00\x00\x03\x00\x00\x00\x00\x00\x00\x00\x00\x00\x00\x00\x00\x00\x00\x00\x00\x00\x00\x00\x00\x00\x00\x00\x00\x00\x00\x00\x00\x00\x00\x00\x00\x00\x00\x00\x00\x00\x00\x00\x00\x00\x00\x00\x00\x00\x00\x00\x00\x00\x00\x00\x00\x00\x00\x00\x00\x00\x00\x00\x00\x00\x00\x00\x00\x00\x00\x00\x00\x00\x00\x00\x00\x00\x00\x00\x00\x00\x00\x00\x00\x00\x00\x00\x00\x00\x00\x00\x00\x00\x00\x00\x00\x00\x00\x00\x00\x00\x00\x00\x00\x00\x00\x00\x00\x00\x00\x00\x00\x00\x00\x00\x00\x00\x00\x00\x00\x00\x00\x00\x00\x00\x00\x00\x00\x00\x00\x00\x00\x00\x00\x00\x00\x00\x00\x00\x00\x00\x00\x00\x00\x00\x00\x00\x00\x00\x00\x00\x00\x00\x00\x00\x00\x00\x00\x00\x00\x00\x00\x00\x00\x00\x00\x00\x00\x00\x00\x00\x00\x00\x00\x00\x00\x00\x00\x00\x00\x00\x00\x00\x00\x00\x00\x00\x00\x00\x00\x00\x00\x00\x00\x00\x00\x00\x00\x00\x00\x00\x00\x00\x00\x00\x00\x00\x00\x00\x00\x00\x00\x00\x00\x00\x00\x00\x00\x00\x00\x00\x00\x00\x00\x00\x00\x00\x00\x00\x00\x00\x00\x00\x00\x00\x00\x00\x00\x00\x00\x00\x00\x00\x00\x00\x00\x00\x00\x00\x00\x00\x00\x00\x00\x00\x00\x00\x00\x00\x00\x00\x00\x00\x00\x00\x00\x00\x00\x00\x00\x00\x00\x00\x00\x00\x00\x00\x00\x00\x00\x00\x00\x00\x00\x00\x00\x00\x00\x00\x00\x00\x00\x00\x00\x00\x00\x00\x00\x00\x00\x00\x00\x00\x00\x00\x00\x00\x00\x00\x00\x00\x00\x00\x00\x00\x00\x00\x00\x00\x00\x00\x00\x00\x00\x00\x00\x00\x00\x00\x00\x00\x00\x00\x00\x00\x00\x00\x00\x00\x00\x00\x00\x00\x00\x00\x00\x00\x00\x00\x00\x00\x00\x00\x00\x00\x00\x00\x00\x00\x00\x00\x00\x00\x00\x00\x00\x00\x00\x00\x00\x00\x00\x00\x00\x00\x00\x00\x00\x00\x00\x00\x00\x00\x00\x00\x00\x00\x00\x00\x00\x00\x00\x00\x00\x00\x00\x00\x00\x00\x00\x00\x00\x00\x00\x00\x00\x00\x00\x00\x00\x00\x00\x00\x00\x00\x00\x00\x00\x00\x00\x00\x00\x00\x00\x00\x00\x00\x00\x00\x00\x00\x00\x00\x00\x00\x00\x00\x00\x00\x00\x00\x00\x00\x00\x00\x00\x00\x00\x00\x00\x00\x00\x00\x00\x00\x00\x00\x00\x00\x00\x00\x00\x00\x00\x00\x00\x00\x00\x00\x00\x00\x00\x00\x00\x00\x00\x00\x00\x00\x00\x00\x00\x00\x00\x00\x00\x00\x00\x00\x00\x00\x00\x00\x00\x00\x00\x00\x00\x00\x00\x00\x00\x00\x00\x00\x00\x00\x00\x00\x00\x00\x00\x00\x00\x00\x00\x00\x00\x00\x00\x00\x00\x00\x00\x00\x00\x00\x00\x00\x00\x00\x00\x00\x00\x00\x00\x00\x00\x00\x00\x00\x00\x00\x00\x00\x00\x00\x00\x00\x00\x00\x00\x00\x00\x00\x00\x00\x00\x00\x00\x00\x00\x00\x00\x00\x00\x00\x00\x00\x00\x00\x00\x00\x00\x00\x00\x00\x00\x00\x00\x00\x00\x00\x00\x00\x00\x00\x00\x00\x00\x00\x00\x00\x00\x00\x00\x00\x00\x00\x00\x00\x00\x00\x00\x00\x00\x00\x00\x00\x00\x00\x00\x00\x00\x00\x00\x00\x00\x00\x00\x00\x00\x00\x00\x00\x00\x00\x00\x00\x00\x00\x00\x00\x00\x00\x00\x00\x00\x00\x00\x00\x00\x00\x00\x00\x00\x00\x00\x00\x00\x00\x00\x00\x00\x00\x00\x00\x00\x00\x00\x00\x00\x00\x00\x00\x00\x00\x00\x00\x00\x00\x00\x00\x00\x00\x00\x00\x00\x00\x00\x00\x00\x00\x00\x00\x00\x00\x00\x00\x00\x00\x00\x00\x00\x00\x00\x00\x00\x00\x00\x00\x00\x00\x00\x00\x00\x00\x00\x00\x00\x00\x00\x00\x00\x00\x00\x00\x00\x00\x00\x00\x00\x00\x00\x00\x00\x00\x00\x00\x00\x00\x00\x00\x00\x00\x00\x00\x00\x00\x00\x00\x00\x00\x00\x00\x00\x00\x00\x00\x00\x00\x00\x00\x00\x00\x00\x00\x00\x00\x00\x00\x00\x00\x00\x00\x00\x00\x00\x00\x00\x00\x00\x00\x00\x00\x00\x00\x00\x00\x00\x00\x00\x00\x00\x00\x00\x00\x00\x00\x00\x00\x00\x00\x00\x00\x00\x00\x00\x00\x00\x00\x00\x00\x00\x00\x00\x00\x00\x00\x00\x00\x00\x00\x00\x00\x00\x00\x00\x00\x00\x00\x00\x00\x00\x00\x00\x00\x00\x00\x00\x00\x00\x03\x00\x00\x00\x03\x00\x00\x00\x03\x00\x00\x00\x03\x00\x00\x00\x03\x00\x00\x00\x03\x00\x00\x00\x03\x00\x00\x00\x03\x00\x00\x00\x03\x00\x00\x00\x03\x00\x00\x00\x03\x00\x00\x00\x03\x00\x00\x00\x03\x00\x00\x00\x03\x00\x00\x00\x03\x00\x00\x00\x03\x00\x00\x00\x03\x00\x00\x00\x03\x00\x00\x00\x00\x00\x00\x00\x00\x00\x00\x00\x00\x00\x00\x00\x00\x00\x00\x00\x00\x00\x00\x00\x00\x00\x00\x00\x00\x00\x00\x00\x00\x00\x00\x00\x00\x00\x00\x00\x00\x00\x00\x00\x00\x00\x00\x00\x00\x00\x00\x00\x00\x00\x00\x00\x00\x00\x00\x00\x00\x00\x00\x00\x00\x00\x00\x00\x00\x00\x00\x00\x00\x00\x00\x00\x00\x00\x00\x00\x00\x00\x00\x00\x00\x00\x00\x00\x00\x00\x00\x00\x00\x00\x00\x00\x00\x00\x00\x00\x00\x00\x00\x00\x00\x00\x00\x00\x00\x00\x00\x00\x00\x00\x00\x00\x00\x00\x00\x00\x00\x00\x00\x00\x00\x00\x00\x00\x00\x00\x00\x00\x00\x00\x00\x00\x00\x00\x00\x00\x00\x00\x00\x00\x00\x00\x00\x00\x00\x00\x00\x00\x00\x00\x00\x00\x00\x00\x00\x00\x00\x00\x00\x00\x00\x00\x00\x00\x00\x00\x00\x00\x00\x00\x00\x00\x00\x00\x00\x00\x00\x00\x00\x00\x00\x00\x00\x00\x00\x00\x00\x00\x00\x00\x00\x00\x00\x00\x00\x00\x00\x00\x00\x00\x00\x00\x00\x00\x00\x00\x00\x00\x00\x00\x00\x00\x00\x00\x00\x00\x00\x00\x00\x00\x00\x00\x00\x00\x00\x00\x00\x00\x00\x00\x00\x00\x00\x00\x00\x00\x00\x00\x00\x00\x00\x00\x00\x00\x00\x00\x00\x00\x00\x00\x00\x00\x00\x00\x00\x00\x00\x00\x00\x00\x00\x00\x00\x00\x00\x00\x00\x00\x00\x00\x00\x00\x00\x00\x00\x00\x00\x00\x00\x00\x00\x00\x00\x00\x00\x00\x00\x00\x00\x00\x00\x00\x00\x00\x00\x00\x00\x00\x00\x00\x00\x00\x00\x00\x00\x00\x00\x00\x00\x00\x00\x00\x00\x00\x00\x00\x00\x00\x00\x00\x00\x00\x00\x00\x00\x00\x00\x00\x00\x00\x00\x00\x00\x00\x00\x00\x00\x00\x00\x00\x00\x00\x00\x00\x00\x00\x00\x00\x00\x00\x00\x00\x00\x00\x00\x00\x00\x00\x00\x00\x00\x00\x00\x00\x00\x00\x00\x00\x00\x00\x00\x00\x00\x00\x00\x00\x00\x00\x00\x00\x00\x00\x00\x00\x00\x00\x00\x00\x00\x00\x00\x00\x00\x00\x00\x00\x00\x00\x00\x00\x00\x00\x00\x00\x00\x00\x00\x00\x00\x00\x00\x00\x00\x00\x00\x00\x00\x00\x00\x00\x00\x00\x00\x00\x00\x00\x00\x00\x00\x00\x00\x00\x00\x00\x00\x00\x00\x00\x00\x00\x00\x00\x00\x00\x00\x00\x00\x00\x00\x00\x00\x00\x00\x00\x00\x00\x00\x00\x00\x00\x00\x00\x00\x00\x00\x00\x00\x00\x00\x00\x00\x00\x00\x00\x00\x00\x00\x00\x00\x00\x00\x00\x00\x00\x00\x00\x00\x00\x00\x00\x00\x00\x00\x00\x00\x00\x00\x00\x00\x00\x00\x00\x00\x00\x00\x00\x00\x00\x00\x00\x00\x00\x00\x00\x00\x00\x00\x00\x00\x00\x00\x00\x00\x00\x00\x00\x00\x00\x00\x00\x00\x00\x00\x00\x00\x00\x00\x00\x00\x00\x00\x00\x00\x00\x00\x00\x00\x00\x00\x00\x00\x00\x00\x00\x00\x00\x00\x00\x00\x00\x00\x00\x00\x00\x00\x00\x00\x00\x00\x00\x00\x00\x00\x00\x00\x00\x00\x00\x00\x00\x00\x00\x00\x00\x00\x00\x00\x00\x00\x00\x00\x00\x00\x00\x00\x00\x00\x00\x00\x00\x00\x00\x00\x00\x00\x00\x00\x00\x00\x00\x00\x00\x00\x00\x00\x00\x00\x00\x00\x00\x00\x00\x00\x00\x00\x00\x00\x00\x00\x00\x00\x00\x00\x00\x00\x00\x00\x00\x00\x00\x00\x00\x00\x00\x00\x00\x00\x00\x00\x00\x00\x00\x00\x00\x00\x00\x00\x00\x00\x00\x00\x00\x00\x00\x00\x00\x00\x00\x00\x00\x00\x00\x00\x00\x00\x00\x00\x00\x00\x00\x00\x00\x00\x00\x00\x00\x00\x00\x00\x00\x00\x00\x00\x00\x00\x00\x00\x00\x00\x00\x00\x00\x00\x00\x00\x00\x00\x00\x00\x00\x00\x00\x00\x00\x00\x00\x00\x00\x00\x00\x00\x00\x00\x00\x00\x00\x00\x00\x00\x00\x00\x00\x00\x00\x00\x00\x00\x00\x00\x00\x00\x00\x00\x00\x00\x00\x00\x00\x00\x00\x00\x00\x00\x00\x00\x00\x00\x00\x00\x00\x00\x00\x00\x00\x00\x00\x00\x00\x00\x00\x00\x00\x00\x00\x00\x00\x00\x00\x00\x00\x00\x00\x00\x00\x00\x00\x00\x00\x00\x00\x00\x00\x00\x00\x00\x00\x00\x00\x00\x00\x00\x00\x00\x00\x00\x00\x00\x00\x00\x00\x00\x00\x00\x00\x00\x00\x00\x03\x00\x00\x00\x03\x00\x00\x00\x03\x00\x00\x00\x03\x00\x00\x00\x03\x00\x00\x00\x03\x00\x00\x00\x03\x00\x00\x00\x03\x00\x00\x00\x03\x00\x00\x00\x03\x00\x00\x00\x03\x00\x00\x00\x03\x00\x00\x00\x03\x00\x00\x00\x03\x00\x00\x00\x03\x00\x00\x00\x03\x00\x00\x00\x03\x00\x00\x00\x03\x00\x00\x00\x00\x00\x00\x00\x00\x00\x00\x00\x00\x00\x00\x00\x00\x00\x00\x00\x00\x00\x00\x00\x00\x00\x00\x00\x00\x00\x00\x00\x00\x00\x00\x00\x00\x00\x00\x00\x00\x00\x00\x00\x00\x00\x00\x00\x00\x00\x00\x00\x00\x00\x00\x00\x00\x00\x00\x00\x00\x00\x00\x00\x00\x00\x00\x00\x00\x00\x00\x00\x00\x00\x00\x00\x00\x00\x00\x00\x00\x00\x00\x00\x00\x00\x00\x00\x00\x00\x00\x00\x00\x00\x00\x00\x00\x00\x00\x00\x00\x00\x00\x00\x00\x00\x00\x00\x00\x00\x00\x00\x00\x00\x00\x00\x00\x00\x00\x00\x00\x00\x00\x00\x00\x00\x00\x00\x00\x00\x00\x00\x00\x00\x00\x00\x00\x00\x00\x00\x00\x00\x00\x00\x00\x00\x00\x00\x00\x00\x00\x00\x00\x00\x00\x00\x00\x00\x00\x00\x00\x00\x00\x00\x00\x00\x00\x00\x00\x00\x00\x00\x00\x00\x00\x00\x00\x00\x00\x00\x00\x00\x00\x00\x00\x00\x00\x00\x00\x00\x00\x00\x00\x00\x00\x00\x00\x00\x00\x00\x00\x00\x00\x00\x00\x00\x00\x00\x00\x00\x00\x00\x00\x00\x00\x00\x00\x00\x00\x00\x00\x00\x00\x00\x00\x00\x00\x00\x00\x00\x00\x00\x00\x00\x00\x00\x00\x00\x00\x00\x00\x00\x00\x00\x00\x00\x00\x00\x00\x00\x00\x00\x00\x00\x00\x00\x00\x00\x00\x00\x00\x00\x00\x00\x00\x00\x00\x00\x00\x00\x00\x00\x00\x00\x00\x00\x00\x00\x00\x00\x00\x00\x00\x00\x00\x00\x00\x00\x00\x00\x00\x00\x00\x00\x00\x00\x00\x00\x00\x00\x00\x00\x00\x00\x00\x00\x00\x00\x00\x00\x00\x00\x00\x00\x00\x00\x00\x00\x00\x00\x00\x00\x00\x00\x00\x00\x00\x00\x00\x00\x00\x00\x00\x00\x00\x00\x00\x00\x00\x00\x00\x00\x00\x00\x00\x00\x00\x00\x00\x00\x00\x00\x00\x00\x00\x00\x00\x00\x00\x00\x00\x00\x00\x00\x00\x00\x00\x00\x00\x00\x00\x00\x00\x00\x00\x00\x00\x00\x00\x00\x00\x00\x00\x00\x00\x00\x00\x00\x00\x00\x00\x00\x00\x00\x00\x00\x00\x00\x00\x00\x00\x00\x00\x00\x00\x00\x00\x00\x00\x00\x00\x00\x00\x00\x00\x00\x00\x00\x00\x00\x00\x00\x00\x00\x00\x00\x00\x00\x00\x00\x00\x00\x00\x00\x00\x00\x00\x00\x00\x00\x00\x00\x00\x00\x00\x00\x00\x00\x00\x00\x00\x00\x00\x00\x00\x00\x00\x00\x00\x00\x00\x00\x00\x00\x00\x00\x00\x00\x00\x00\x00\x00\x00\x00\x00\x00\x00\x00\x00\x00\x00\x00\x00\x00\x00\x00\x00\x00\x00\x00\x00\x00\x00\x00\x00\x00\x00\x00\x00\x00\x00\x00\x00\x00\x00\x00\x00\x00\x00\x00'
p4457
sa(dp4458
g5
I210
sg6
I01
sg7
I209
sg8
S'\x00\x00\x00\x00\x00\x00\x00\x00\x00\x00\x00\x00\x00\x00\x00\x00\x00\x00\x00\x00\x00\x00\x00\x00\x00\x00\x00\x00\x00\x00\x00\x00\x00\x00\x00\x00\x00\x00\x00\x00\x00\x00\x00\x00\x00\x00\x00\x00\x00\x00\x00\x00\x00\x00\x00\x00\x00\x00\x00\x00\x00\x00\x00\x00\x00\x00\x00\x00\x00\x00\x00\x00\x00\x00\x00\x00\x00\x00\x00\x00\x00\x00\x00\x00\x00\x00\x00\x00\x00\x00\x00\x00\x00\x00\x00\x00\x00\x00\x00\x00\x00\x00\x00\x00\x00\x00\x00\x00\x00\x00\x00\x00\x00\x00\x00\x00\x00\x00\x00\x00\x00\x00\x00\x00\x00\x00\x00\x00\x00\x00\x00\x00\x00\x00\x00\x00\x00\x00\x00\x00\x00\x00\x00\x00\x00\x00\x00\x00\x00\x00\x00\x00\x00\x00\x00\x00\x00\x00\x00\x00\x00\x00\x00\x00\x00\x00\x00\x00\x00\x00\x00\x00\x00\x00\x00\x00\x00\x00\x00\x00\x00\x00\x00\x00\x00\x00\x00\x00\x00\x00\x00\x00\x00\x00\x00\x00\x00\x00\x00\x00\x00\x00\x00\x00\x00\x00\x00\x00\x00\x00\x00\x00\x00\x00\x00\x00\x00\x00\x00\x00\x00\x00\x00\x00\x00\x00\x00\x00\x00\x00\x00\x00\x00\x00\x00\x00\x00\x00\x00\x00\x00\x00\x00\x00\x00\x00\x00\x00\x00\x00\x00\x00\x00\x00\x00\x00\x00\x00\x00\x00\x00\x00\x00\x00\x00\x00\x00\x00\x00\x00\x00\x00\x00\x00\x00\x00\x00\x00\x00\x00\x00\x00\x00\x00\x00\x00\x00\x00\x00\x00\x00\x00\x00\x00\x00\x00\x00\x00\x00\x00\x00\x00\x00\x00\x00\x00\x00\x00\x00\x00\x00\x00\x00\x00\x00\x00\x00\x00\x00\x00\x00\x00\x00\x00\x00\x00\x00\x00\x00\x00\x00\x00\x00\x00\x00\x00\x00\x00\x00\x00\x00\x00\x00\x00\x00\x00\x00\x00\x00\x00\x00\x00\x00\x00\x00\x00\x00\x00\x00\x00\x00\x00\x00\x00\x00\x00\x00\x00\x00\x00\x00\x00\x00\x00\x00\x00\x00\x00\x00\x00\x00\x00\x00\x00\x00\x00\x00\x00\x00\x00\x00\x00\x00\x00\x00\x00\x00\x00\x00\x00\x00\x00\x00\x00\x00\x00\x00\x00\x00\x00\x00\x00\x00\x00\x00\x00\x00\x00\x00\x00\x00\x00\x00\x00\x00\x00\x00\x00\x00\x00\x00\x00\x00\x00\x00\x00\x00\x00\x00\x00\x00\x00\x00\x00\x00\x00\x00\x00\x00\x00\x00\x00\x00\x00\x00\x00\x00\x00\x00\x00\x00\x00\x00\x00\x00\x00\x00\x00\x00\x00\x00\x00\x00\x00\x00\x00\x00\x00\x00\x00\x00\x00\x00\x00\x00\x00\x00\x00\x00\x00\x00\x00\x00\x00\x00\x00\x00\x00\x00\x00\x00\x00\x00\x00\x00\x00\x00\x00\x00\x00\x00\x00\x00\x00\x00\x00\x00\x00\x00\x00\x00\x00\x00\x00\x00\x00\x00\x00\x00\x00\x00\x00\x00\x00\x00\x00\x00\x00\x00\x00\x00\x00\x00\x00\x00\x00\x00\x00\x00\x00\x00\x00\x00\x00\x00\x00\x00\x00\x00\x00\x00\x00\x00\x00\x00\x00\x00\x00\x00\x00\x00\x00\x00\x00\x00\x00\x00\x00\x00\x00\x00\x00\x00\x00\x00\x00\x00\x00\x00\x00\x00\x00\x00\x00\x00\x00\x00\x00\x00\x00\x00\x00\x00\x00\x00\x00\x00\x00\x00\x00\x00\x00\x00\x00\x00\x00\x00\x00\x00\x00\x00\x00\x00\x00\x00\x00\x00\x00\x00\x00\x00\x00\x00\x00\x00\x00\x00\x00\x00\x00\x00\x00\x00\x00\x00\x00\x00\x00\x00\x00\x00\x00\x00\x00\x00\x00\x00\x00\x00\x00\x00\x00\x00\x00\x00\x00\x00\x00\x00\x00\x00\x00\x00\x00\x00\x00\x00\x00\x00\x00\x00\x00\x00\x00\x00\x00\x00\x00\x00\x00\x00\x00\x00\x00\x00\x00\x00\x00\x00\x00\x00\x00\x00\x00\x00\x00\x00\x00\x00\x00\x00\x00\x00\x00\x00\x00\x00\x00\x00\x00\x00\x00\x00\x00\x00\x00\x00\x00\x00\x00\x00\x00\x00\x00\x00\x00\x00\x00\x00\x00\x00\x00\x00\x00\x00\x00\x00\x00\x00\x00\x00\x00\x00\x00\x00\x00\x00\x00\x00\x00\x00\x00\x00\x00\x00\x00\x00\x00\x00\x00\x00\x00\x00\x00\x00\x00\x00\x00\x00\x00\x00\x00\x00\x00\x00\x00\x00\x00\x00\x00\x00\x00\x00\x00\x00\x00\x00\x00\x00\x00\x00\x00\x00\x00\x00\x00\x00\x00\x00\x00\x00\x00\x00\x00\x00\x00\x00\x00\x00\x00\x00\x00\x00\x00\x00\x00\x00\x00\x00\x00\x00\x00\x00\x00\x00\x00\x00\x00\x00\x00\x00\x00\x00\x00\x00\x00\x00\x00\x00\x00\x00\x00\x00\x00\x00\x00\x00\x00\x00\x00\x00\x00\x00\x00\x00\x00\x00\x00\x00\x00\x00\x00\x00\x00\x00\x00\x00\x00\x00\x00\x00\x00\x00\x00\x00\x00\x00\x00\x00\x00\x00\x00\x00\x00\x00\x00\x00\x00\x00\x00\x00\x00\x00\x00\x00\x00\x00\x00\x00\x00\x00\x00\x00\x00\x00\x00\x00\x00\x00\x00\x00\x00\x00\x00\x00\x00\x00\x00\x00\x00\x00\x00\x00\x00\x00\x00\x00\x00\x00\x00\x00\x00\x00\x00\x00\x00\x00\x00\x00\x00\x00\x00\x00\x00\x00\x00\x00\x00\x00\x00\x00\x00\x00\x00\x00\x00\x00\x00\x00\x00\x00\x00\x00\x00\x00\x00\x00\x00\x00\x00\x00\x00\x00\x00\x00\x00\x00\x00\x00\x00\x00\x00\x00\x00\x00\x00\x00\x00\x00\x00\x00\x00\x00\x00\x00\x00\x00\x00\x00\x00\x00\x00\x00\x00\x00\x00\x00\x00\x00\x00\x00\x00\x00\x00\x00\x00\x00\x00\x00\x00\x00\x00\x00\x00\x00\x00\x00\x00\x00\x00\x00\x00\x00\x00\x00\x00\x00\x00\x00\x00\x00\x00\x00\x00\x00\x00\x00\x00\x00\x00\x00\x00\x00\x00\x00\x00\x00\x00\x00\x00\x00\x00\x00\x00\x00\x00\x00\x00\x00\x00\x00\x00\x00\x00\x00\x00\x00\x00\x00\x00\x00\x00\x00\x00\x00\x00\x00\x00\x00\x00\x00\x00\x00\x00\x00\x00\x00\x00\x00\x00\x00\x00\x00\x00\x00\x00\x00\x00\x00\x00\x00\x00\x00\x00\x00\x00\x00\x00\x00\x00\x00\x00\x00\x00\x00\x00\x00\x00\x00\x00\x00\x00\x00\x00\x00\x00\x00\x00\x00\x00\x00\x00\x00\x00\x00\x00\x00\x00\x00\x00\x00\x00\x00\x00\x00\x00\x00\x00\x00\x00\x00\x00\x00\x00\x00\x00\x00\x00\x00\x00\x00\x00\x00\x00\x00\x00\x00\x00\x00\x00\x00\x00\x00\x00\x00\x00\x00\x00\x00\x00\x00\x00\x00\x00\x00\x00\x00\x00\x00\x00\x00\x00\x00\x00\x00\x00\x00\x00\x00\x00\x00\x00\x00\x00\x00\x00\x00\x00\x00\x00\x00\x00\x00\x00\x00\x00\x00\x00\x00\x00\x00\x00\x00\x00\x00\x00\x00\x00\x00\x00\x00\x00\x00\x00\x00\x00\x00\x00\x00\x00\x00\x00\x00\x00\x00\x00\x00\x00\x00\x00\x00\x00\x00\x00\x00\x00\x00\x00\x00\x00\x00\x00\x00\x00\x00\x00\x00\x00\x00\x00\x00\x00\x00\x00\x00\x00\x00\x00\x00\x00\x00\x00\x00\x00\x00\x00\x00\x00\x00\x00\x00\x00\x00\x00\x00\x00\x00\x00\x00\x00\x00\x00\x00\x00\x00\x00\x00\x00\x00\x00\x00\x00\x00\x00\x00\x00\x00\x00\x00\x00\x00\x00\x00\x00\x00\x00\x00\x00\x00\x00\x00\x00\x00\x00\x00\x00\x00\x00\x00\x00\x00\x00\x00\x00\x00\x00\x00\x00\x00\x00\x00\x00\x00\x00\x00\x00\x00\x00\x00\x00\x00\x00\x00\x00\x00\x00\x00\x00\x00\x00\x00\x00\x00\x00\x00\x00\x00\x00\x00\x00\x00\x00\x00\x00\x00\x00\x00\x00\x00\x00\x00\x00\x00\x00\x00\x00\x00\x00\x00\x00\x00\x00\x00\x00\x00\x00\x00\x00\x00\x00\x00\x00\x00\x00\x00\x00\x00\x00\x00\x00\x00\x00\x00\x00\x00\x00\x00\x00\x00\x00\x00\x00\x00\x00\x00\x00\x00\x00\x00\x00\x00\x00\x00\x00\x00\x00\x00\x00\x00\x00\x00\x00\x00\x00\x00\x00\x00\x00\x00\x00\x00\x00\x00\x00\x00\x00\x00\x00\x00\x00\x00\x00\x00\x00\x00\x00\x00\x00\x00\x00\x00\x00\x00\x00\x00\x00\x00\x00\x00\x00\x00\x00\x00\x00\x00\x00\x00\x00\x00\x00\x00\x00\x00\x00\x00\x00\x00\x00\x00\x00\x00\x00\x00\x00\x00\x00\x00\x00\x00\x00\x00\x00\x00\x00\x00\x00\x00\x00\x00\x00\x00\x00\x00\x00\x00\x00\x00\x00\x00\x00\x00\x00\x00\x00\x00\x00\x00\x00\x00\x00\x00\x00\x00\x00\x00\x00\x00\x00\x00\x00\x00\x00\x00\x00\x00\x00\x00\x00\x00\x00\x00\x00\x00\x00\x00\x00\x00\x00\x00\x00\x00\x00\x00\x00\x00\x00\x00\x00\x00\x00\x00\x00\x00\x00\x00\x00\x00\x00\x00\x00\x00\x00\x00\x00\x00\x00\x00\x00\x00\x00\x00\x00\x00\x00\x00\x00\x00\x00\x00\x00\x00\x00\x00\x00\x00\x00\x00\x00\x00\x00\x00\x00\x00\x00\x00\x00\x00\x00\x00\x00\x00\x00\x00\x00\x00\x00\x00\x00\x00\x00\x00\x00\x00\x00\x00\x00\x00\x00\x00\x00\x00\x00\x00\x00\x00\x00\x00\x00\x00\x00\x00\x00\x00\x00\x00\x00\x00\x00\x00\x00\x00\x00\x00\x00\x00\x00\x00\x00\x00\x00\x00\x00\x00\x00\x00\x00\x00\x00\x00\x00\x00\x00\x00\x00\x00\x00\x00\x00\x00\x00\x00\x00\x00\x00\x00\x00\x00\x00\x00\x00\x00\x00\x00\x00\x00\x00\x00\x00\x00\x00\x00\x00\x00\x00\x00\x00\x00\x00\x00\x00\x00\x00\x00\x00\x00\x00\x00\x00\x00\x00\x00\x00\x00\x00\x00\x00\x00\x00\x00\x00\x00\x00\x00\x00\x00\x00\x00\x00\x00\x00\x00\x00\x00\x00\x00\x00\x00\x00\x00\x00\x00\x00\x00\x00\x00\x00\x00\x00\x00\x00\x00\x00\x00\x00\x00\x00\x00\x00\x00\x00\x00\x00\x00\x00\x00\x00\x00\x00\x00\x00\x00\x00\x00\x00\x00\x00\x00\x00\x00\x00\x00\x00\x00\x00\x00\x00\x00\x00\x00\x00\x00\x00\x00\x00\x00\x00\x00\x00\x00\x00\x00\x00\x00\x00\x00\x00\x00\x00\x00\x00\x00\x00\x00\x00\x00\x00\x00\x00\x00\x00\x00\x00\x00\x00\x00\x00\x00\x00\x00\x00\x00\x00\x00\x00\x00\x00\x00\x00\x00\x00\x00\x00\x00\x00\x00\x00\x00\x00\x00\x00\x00\x00\x00\x00\x00\x00\x00\x00\x00\x00\x00\x00\x00\x00\x00\x00\x00\x00\x00\x00\x00\x00\x00\x00\x00\x00\x00\x00\x00\x00\x00\x00\x00\x00\x00\x00\x00\x00\x00\x00\x00\x00\x00\x00\x00\x00\x00\x00\x00\x00\x00\x00\x00\x00\x00\x00\x00\x00\x00\x00\x00\x00\x00\x00\x00\x00\x00\x00\x00\x00\x00\x00\x00\x00\x00\x00\x00\x00\x00\x00\x00\x00\x00\x00\x00\x00\x00\x00\x00\x00\x00\x00\x00\x00\x00\x00\x00\x00\x00\x00\x00\x00\x00\x00\x00\x00\x00\x00\x00\x00\x00\x00\x00\x00\x00\x00\x00\x00\x00\x00\x00\x00\x00\x00\x00\x00\x00\x00\x00\x00\x00\x00\x00\x00\x00\x00\x00\x00\x00\x00\x00\x00\x00\x00\x00\x00\x00\x00\x00\x00\x00\x00\x00\x00\x00\x00\x00\x00\x00\x00\x00\x00\x00\x00\x00\x00\x00\x00\x00\x00\x00\x00\x00\x00\x00\x00\x00\x00\x00\x00\x00\x00\x00\x00\x00\x00\x00\x00\x00\x00\x00\x00\x00\x00\x00\x00\x00\x00\x00\x00\x00\x00\x00\x00\x00\x00\x00\x00\x00\x00\x00\x00\x00\x00\x00\x00\x00\x00\x00\x00\x00\x00\x00\x00\x00\x00\x00\x00\x00\x00\x00\x00\x00\x00\x00\x00\x00\x00\x00\x00\x00\x00\x00\x00\x00\x00\x00\x00\x00\x00\x00\x00\x00\x00\x00\x00\x00\x00\x00\x00\x00\x00\x00\x00\x00\x00\x00\x00\x00\x00\x00\x00\x00\x00\x00\x00\x00\x00\x00\x00\x00\x00\x00\x00\x00\x00\x00\x00\x00\x00\x00\x00\x00\x00\x00\x00\x00\x00\x00\x00\x00\x00\x00\x00\x00\x00\x00\x00\x00\x00\x00\x00\x00\x00\x00\x00\x00\x00\x00\x00\x00\x00\x00\x00\x00\x00\x00\x00\x00\x00\x00\x00\x00\x00\x00\x00\x00\x00\x00\x00\x00\x00\x00\x00\x00\x00\x00\x00\x00\x00\x00\x00\x00\x00\x00\x00\x00\x00\x00\x00\x00\x00\x00\x00\x00\x00\x00\x00\x00\x00\x00\x00\x00\x00\x00\x00\x00\x00\x00\x00\x00\x00\x00\x00\x00\x00\x00\x00\x00\x00\x00\x00\x00\x00\x00\x00\x00\x00\x00\x00\x00\x00\x00\x00\x00\x00\x00\x00\x00\x00\x00\x00\x00\x00\x00\x00\x00\x00\x00\x00\x00\x00\x00\x00\x00\x00\x00\x00\x00\x00\x00\x00\x00\x00\x00\x00\x00\x00\x00\x00\x00\x00\x00\x00\x00\x00\x00\x00\x00\x00\x00\x00\x00\x00\x00\x00\x00\x00\x00\x00\x00\x00\x00\x00\x00\x00\x00\x00\x00\x00\x00\x00\x00\x00\x00\x00\x00\x00\x00\x00\x00\x00\x00\x00\x00\x00\x00\x00\x00\x00\x00\x00\x00\x00\x00\x00\x00\x00\x00\x00\x00\x00\x00\x00\x00\x00\x00\x00\x00\x00\x00\x00\x00\x00\x00\x00\x00\x00\x00\x00\x00\x00\x00\x00\x00\x00\x00\x00\x00\x00\x00\x00\x00\x00\x00\x00\x00\x00\x00\x00\x00\x00\x00\x00\x00\x00\x00\x00\x00\x00\x00\x00\x00\x00\x00\x00\x00\x00\x00\x00\x00\x00\x00\x00\x00\x00\x00\x00\x00\x00\x00\x00\x00\x00\x00\x00\x00\x00\x00\x00\x00\x00\x00\x00\x00\x00\x00\x00\x00\x00\x00\x00\x00\x00\x00\x00\x00\x00\x00\x00\x00\x00\x00\x00\x00\x00\x00\x00\x00\x00\x00\x00\x00\x00\x00\x00\x00\x00\x00\x00\x00\x00\x00\x00\x00\x00\x00\x00\x00\x00\x00\x00\x00\x00\x00\x00\x00\x00\x00\x00\x00\x00\x00\x00\x00\x00\x00\x00\x00\x00\x00\x00\x00\x00\x00\x00\x00\x00\x00\x00\x00\x00\x00\x00\x00\x00\x00\x00\x00\x00\x00\x00\x00\x00\x00\x00\x00\x00\x00\x00\x00\x00\x00\x00\x00\x00\x00\x00\x00\x00\x00\x00\x00\x00\x00\x00\x00\x00\x00\x00\x00\x00\x00\x00\x00\x00\x00\x00\x00\x00\x00\x00\x00\x00\x00\x00\x00\x00\x00\x00\x00\x00\x00\x00\x00\x00\x00\x00\x00\x00\x00\x00\x00\x00\x00\x00\x00\x00\x00\x00\x00\x00\x00\x00\x00\x00\x00\x00\x00\x00\x00\x00\x00\x00\x00\x00\x00\x00\x00\x00\x00\x00\x00\x00\x00\x00\x00\x00\x00\x00\x00\x00\x00\x00\x00\x00\x00\x00\x00\x00\x00\x00\x00\x00\x00\x00\x00\x00\x00\x00\x00\x00\x00\x00\x00\x00\x00\x00\x00\x00\x00\x00\x00\x00\x00\x00\x00\x00\x00\x00\x00\x00\x00\x00\x00\x00\x00\x00\x00\x00\x00\x00\x00\x00\x00\x00\x00\x00\x00\x00\x00\x00\x00\x00\x00\x00\x00\x00\x00\x00\x00\x00\x00\x00\x00\x00\x00\x00\x00\x00\x00\x00\x00\x00\x00\x00\x00\x00\x00\x00\x00\x00\x00\x00\x00\x00\x00\x00\x00\x00\x00\x00\x00\x00\x00\x00\x00\x00\x00\x00\x00\x00\x00\x00\x00\x00\x00\x00\x00\x00\x00\x00\x00\x00\x00\x00\x00\x00\x00\x00\x00\x00\x00\x00\x00\x00\x00\x00\x00\x00\x00\x00\x00\x00\x00\x00\x00\x00\x00\x00\x00\x00\x00\x00\x00\x00\x00\x00\x00\x00\x00\x00\x00\x00\x00\x00\x00\x00\x00\x00\x00\x00\x00\x00\x00\x00\x00\x00\x00\x00\x00\x00\x00\x00\x00\x00\x00\x00\x00\x00\x00\x00\x00\x00\x00\x00\x00\x00\x00\x00\x00\x00\x00\x00\x00\x00\x00\x00\x00\x00\x00\x00\x00\x00\x00\x00\x00\x00\x00\x00\x00\x00\x00\x00\x00\x00\x00\x00\x00\x00\x00\x00\x00\x00\x00\x00\x00\x00\x00\x00\x00\x00\x00\x00\x00\x00\x00\x00\x00\x00\x00\x00\x00\x00\x00\x00\x00\x00\x00\x00\x00\x00\x00\x00\x00\x00\x00\x00\x00\x00\x00\x00\x00\x00\x00\x00\x00\x00\x00\x00\x00\x00\x00\x00\x00\x00\x00\x00\x00\x00\x00\x00\x00\x00\x00\x00\x00\x00\x00\x00\x00\x00\x00\x00\x00\x00\x00\x00\x00\x00\x00\x00\x00\x00\x00\x00\x00\x00\x00\x00\x00\x00\x00\x00\x00\x00\x00\x00\x00\x00\x00\x00\x00\x00\x00\x00\x00\x00\x00\x00\x00\x00\x00\x00\x00\x00\x00\x00\x00\x00\x00\x00\x00\x00\x00\x00\x00\x00\x00\x00\x00\x00\x00\x00\x00\x00\x00\x00\x00\x00\x00\x00\x00\x00\x00\x00\x00\x00\x00\x00\x00\x00\x00\x00\x00\x00\x00\x00\x00\x00\x00\x00\x00\x00\x00\x00\x00\x00\x00\x00\x00\x00\x00\x00\x00\x00\x00\x00\x00\x00\x00\x00\x00\x00\x00\x00\x00\x00\x00\x00\x00\x00\x00\x00\x00\x00\x00\x00\x00\x00\x00\x00\x00\x00\x00\x00\x00\x00\x00\x00\x00\x00\x00\x00\x00\x00\x00\x00\x00\x00\x00\x00\x00\x00\x00\x00\x00\x00\x00\x00\x00\x00\x00\x00\x00\x00\x00\x00\x00\x00\x00\x00\x00\x00\x00\x00\x00\x00\x00\x00\x00\x00\x00\x00\x00\x00\x00\x00\x00\x00\x00\x00\x00\x00\x00\x00\x00\x00\x00\x00\x00\x00\x00\x00\x00\x00\x00\x00\x00\x00\x00\x00\x00\x00\x00\x00\x00\x00\x00\x00\x00\x00\x00\x00\x00\x00\x00\x00\x00\x00\x00\x00\x00\x00\x00\x00\x00\x00\x00\x00\x00\x00\x00\x00\x00\x00\x00\x00\x00\x00\x00\x00\x00\x00\x00\x00\x00\x00\x00\x00\x00\x00\x00\x00\x00\x00\x00\x00\x00\x00\x00\x00\x00\x00\x00\x00\x00\x00\x00\x00\x00\x00\x00\x00\x00\x00\x00\x00\x00\x00\x00\x00\x00\x00\x00\x00\x00\x00\x00\x00\x00\x00\x00\x00\x00\x00\x00\x00\x00\x00\x00\x00\x00\x00\x00\x00\x00\x00\x00\x00\x00\x00\x00\x00\x00\x00\x00\x00\x00\x00\x00\x00\x00\x00\x00\x00\x00\x00\x00\x00\x00\x00\x00\x00\x00\x00\x00\x00\x00\x00\x00\x00\x00\x00\x00\x00\x00\x00\x00\x00\x00\x00\x00\x00\x00\x00\x00\x00\x00\x00\x00\x00\x00\x00\x00\x00\x00\x00\x00\x00\x00\x00\x00\x00\x00\x00\x00\x00\x00\x00\x00\x00\x00\x00\x00\x00\x00\x00\x00\x00\x00\x00\x00\x00\x00\x00\x00\x00\x00\x00\x00\x00\x00\x00\x00\x00\x00\x00\x00\x00\x00\x00\x00\x00\x00\x00\x00\x00\x00\x00\x00\x00\x00\x00\x00\x00\x00\x00\x00\x00\x00\x00\x00\x00\x00\x00\x00\x00\x00\x00\x00\x00\x00\x00\x00\x00\x00\x00\x00\x00\x00\x00\x00\x00\x00\x00\x00\x00\x00\x00\x00\x00\x00\x00\x00\x00\x00\x00\x00\x00\x00\x00\x00\x00\x00\x00\x00\x00\x00\x00\x00\x00\x00\x00\x00\x00\x00\x00\x00\x00\x00\x00\x00\x00\x00\x00\x00\x00\x00\x00\x00\x00\x00\x00\x00\x00\x00\x00\x00\x00\x00\x00\x00\x00\x00\x00\x00\x00\x00\x00\x00\x00\x00\x00\x00\x00\x00\x00\x00\x00\x00\x00\x00\x00\x00\x00\x00\x00\x00\x00\x00\x00\x00\x00\x00\x00\x00\x00\x00\x00\x00\x00\x00\x00\x00\x00\x00\x00\x00\x00\x00\x00\x00\x00\x00\x00\x00\x00\x00\x00\x00\x00\x00\x00'
p4459
sa(dp4460
g5
L211L
sg6
I01
sg7
I211
sg8
S'\x00\x00\x00\x00\x00\x00\x00\x00\x00\x00\x00\x00\x00\x00\x00\x00\x00\x00\x00\x00\x00\x00\x00\x00\x00\x00\x00\x00\x00\x00\x00\x00\x00\x00\x00\x00\x00\x00\x00\x00\x00\x00\x00\x00\x00\x00\x00\x00\x00\x00\x00\x00\x00\x00\x00\x00\x00\x00\x00\x00\x00\x00\x00\x00\x00\x00\x00\x00\x00\x00\x00\x00\x00\x00\x00\x00\x00\x00\x00\x00\x00\x00\x00\x00\x00\x00\x00\x00\x00\x00\x00\x00\x00\x00\x00\x00\x00\x00\x00\x00\x00\x00\x00\x00\x00\x00\x00\x00\x00\x00\x00\x00\x00\x00\x00\x00\x00\x00\x00\x00\x00\x00\x00\x00\x00\x00\x00\x00\x00\x00\x00\x00\x00\x00\x00\x00\x00\x00\x00\x00\x00\x00\x00\x00\x00\x00\x00\x00\x00\x00\x00\x00\x00\x00\x00\x00\x00\x00\x00\x00\x00\x00\x00\x00\x00\x00\x00\x00\x00\x00\x00\x00\x00\x00\x00\x00\x00\x00\x00\x00\x00\x00\x00\x00\x00\x00\x00\x00\x00\x00\x00\x00\x00\x00\x00\x00\x00\x00\x00\x00\x00\x00\x00\x00\x00\x00\x00\x00\x00\x00\x00\x00\x00\x00\x00\x00\x00\x00\x00\x00\x00\x00\x00\x00\x00\x00\x00\x00\x00\x00\x00\x00\x00\x00\x00\x00\x00\x00\x00\x00\x00\x00\x00\x00\x00\x00\x00\x00\x00\x00\x00\x00\x00\x00\x00\x00\x00\x00\x00\x00\x00\x00\x00\x00\x00\x00\x00\x00\x00\x00\x00\x00\x00\x00\x00\x00\x00\x00\x00\x00\x00\x00\x00\x00\x00\x00\x00\x00\x00\x00\x00\x00\x00\x00\x00\x00\x00\x00\x00\x00\x00\x00\x00\x00\x00\x00\x00\x00\x00\x00\x00\x00\x00\x00\x00\x00\x00\x00\x00\x00\x00\x00\x00\x00\x00\x00\x00\x00\x00\x00\x00\x00\x00\x00\x00\x00\x00\x00\x00\x00\x00\x00\x00\x00\x00\x00\x00\x00\x00\x00\x00\x00\x00\x00\x00\x00\x00\x00\x00\x00\x00\x00\x00\x00\x00\x00\x00\x00\x00\x00\x00\x00\x00\x00\x00\x00\x00\x00\x00\x00\x00\x00\x00\x00\x00\x00\x00\x00\x00\x00\x00\x00\x00\x00\x00\x00\x00\x00\x00\x00\x00\x00\x00\x00\x00\x00\x00\x00\x00\x00\x00\x00\x00\x00\x00\x00\x00\x00\x00\x00\x00\x00\x00\x00\x00\x00\x00\x00\x00\x00\x00\x00\x02\x00\x00\x00\x00\x00\x00\x00\x00\x00\x00\x00\x00\x00\x00\x00\x00\x00\x00\x00\x00\x00\x00\x00\x00\x00\x00\x00\x00\x00\x00\x00\x00\x00\x00\x00\x00\x00\x00\x00\x00\x00\x00\x00\x00\x00\x00\x00\x00\x00\x00\x00\x00\x00\x00\x00\x00\x00\x00\x00\x00\x00\x00\x00\x00\x00\x00\x00\x00\x00\x00\x00\x00\x00\x00\x00\x00\x00\x00\x00\x00\x00\x00\x00\x00\x00\x00\x00\x00\x00\x00\x00\x00\x00\x00\x00\x00\x00\x00\x00\x00\x00\x00\x00\x00\x00\x00\x00\x00\x00\x00\x00\x00\x00\x00\x00\x00\x00\x00\x00\x00\x00\x00\x00\x00\x00\x00\x00\x00\x00\x00\x00\x00\x00\x00\x00\x00\x00\x00\x00\x00\x00\x00\x00\x00\x00\x00\x00\x00\x00\x00\x00\x00\x00\x00\x00\x00\x00\x00\x00\x00\x00\x00\x00\x00\x00\x00\x00\x00\x00\x00\x00\x00\x00\x00\x00\x00\x00\x00\x00\x00\x00\x00\x00\x00\x00\x00\x00\x00\x00\x00\x00\x00\x00\x00\x00\x00\x00\x00\x00\x00\x00\x00\x00\x00\x00\x00\x00\x00\x00\x00\x00\x00\x00\x00\x00\x00\x00\x00\x00\x00\x00\x00\x00\x00\x00\x00\x00\x00\x00\x00\x00\x00\x00\x00\x00\x00\x00\x00\x00\x00\x00\x00\x00\x00\x00\x00\x00\x00\x00\x00\x00\x00\x00\x00\x00\x00\x00\x00\x00\x00\x00\x00\x00\x00\x00\x00\x00\x00\x00\x00\x00\x00\x00\x00\x00\x00\x00\x00\x00\x00\x00\x00\x00\x00\x00\x00\x00\x00\x00\x00\x00\x00\x00\x00\x00\x00\x00\x00\x00\x00\x00\x00\x00\x00\x00\x00\x00\x00\x00\x00\x00\x00\x00\x00\x00\x00\x00\x00\x00\x00\x00\x00\x00\x00\x00\x00\x00\x00\x00\x00\x00\x00\x00\x00\x00\x00\x00\x00\x00\x00\x00\x00\x00\x00\x00\x00\x00\x00\x00\x00\x00\x00\x00\x00\x00\x00\x00\x00\x00\x00\x00\x00\x00\x00\x00\x00\x00\x00\x00\x00\x00\x00\x00\x00\x00\x00\x00\x00\x00\x00\x00\x00\x00\x00\x00\x00\x00\x00\x00\x00\x00\x00\x00\x00\x00\x00\x00\x00\x00\x00\x00\x00\x00\x00\x00\x00\x00\x00\x00\x00\x00\x00\x00\x00\x00\x00\x00\x00\x00\x00\x00\x00\x00\x00\x00\x00\x00\x00\x00\x00\x00\x00\x00\x00\x00\x00\x00\x00\x00\x00\x00\x00\x00\x00\x00\x00\x00\x00\x00\x00\x00\x00\x00\x00\x00\x00\x00\x00\x00\x00\x00\x00\x00\x00\x00\x00\x00\x00\x00\x00\x00\x00\x00\x00\x00\x00\x00\x00\x00\x00\x00\x00\x00\x00\x00\x00\x00\x00\x00\x00\x00\x00\x00\x00\x00\x00\x00\x00\x00\x00\x00\x00\x00\x00\x00\x00\x00\x00\x00\x00\x00\x00\x00\x00\x00\x00\x00\x00\x00\x00\x00\x00\x00\x00\x00\x00\x00\x00\x00\x00\x00\x00\x00\x00\x00\x00\x00\x00\x00\x00\x00\x00\x00\x00\x00\x00\x00\x00\x00\x00\x00\x00\x00\x00\x00\x00\x00\x00\x00\x00\x00\x00\x00\x00\x00\x00\x00\x00\x00\x00\x00\x00\x00\x00\x00\x00\x00\x00\x00\x00\x00\x00\x00\x00\x00\x00\x00\x00\x00\x00\x00\x00\x00\x00\x00\x00\x00\x00\x00\x00\x00\x00\x00\x00\x00\x00\x00\x00\x00\x00\x00\x00\x00\x00\x00\x00\x00\x00\x00\x00\x00\x00\x00\x00\x00\x00\x00\x00\x00\x00\x00\x00\x00\x00\x00\x00\x00\x00\x00\x00\x00\x00\x00\x00\x00\x00\x00\x00\x00\x00\x00\x00\x00\x00\x00\x00\x00\x00\x00\x00\x00\x00\x00\x00\x00\x00\x00\x00\x00\x00\x00\x00\x00\x00\x00\x00\x00\x00\x00\x00\x00\x00\x00\x00\x00\x00\x00\x00\x00\x00\x00\x00\x00\x00\x00\x00\x00\x00\x00\x00\x00\x00\x00\x00\x00\x00\x00\x00\x00\x00\x00\x00\x00\x00\x00\x00\x00\x00\x00\x00\x00\x00\x00\x00\x00\x00\x00\x00\x00\x00\x00\x00\x00\x00\x00\x00\x00\x00\x00\x00\x00\x00\x00\x00\x00\x00\x00\x00\x00\x00\x00\x00\x00\x00\x00\x00\x00\x00\x00\x00\x00\x00\x00\x00\x00\x00\x00\x00\x00\x00\x00\x00\x00\x00\x00\x00\x00\x00\x00\x00\x00\x00\x00\x00\x00\x00\x00\x00\x00\x00\x00\x00\x00\x00\x00\x00\x00\x00\x00\x00\x00\x00\x00\x00\x00\x00\x00\x00\x00\x00\x00\x00\x00\x00\x00\x00\x00\x00\x00\x00\x00\x00\x00\x00\x00\x00\x00\x00\x00\x00\x00\x00\x00\x00\x00\x00\x00\x00\x00\x00\x00\x00\x00\x00\x00\x00\x00\x00\x00\x00\x00\x00\x00\x00\x00\x00\x00\x00\x00\x00\x00\x00\x00\x00\x00\x00\x00\x00\x00\x00\x00\x00\x00\x00\x00\x00\x00\x00\x00\x00\x00\x00\x00\x00\x00\x00\x00\x00\x00\x00\x00\x00\x00\x00\x00\x00\x00\x00\x00\x00\x00\x00\x00\x00\x00\x00\x00\x00\x00\x00\x00\x00\x00\x00\x00\x00\x00\x00\x00\x00\x00\x00\x00\x00\x00\x00\x00\x00\x00\x00\x00\x00\x00\x00\x00\x00\x00\x00\x00\x00\x00\x00\x00\x00\x00\x00\x00\x00\x00\x00\x00\x00\x00\x00\x00\x00\x00\x00\x00\x00\x00\x00\x00\x00\x00\x00\x00\x00\x00\x00\x00\x00\x00\x00\x00\x00\x00\x00\x00\x00\x00\x00\x00\x00\x00\x00\x00\x00\x00\x00\x00\x00\x00\x00\x00\x00\x00\x00\x00\x00\x00\x00\x00\x00\x00\x00\x00\x00\x00\x00\x00\x00\x00\x00\x00\x00\x00\x00\x00\x00\x00\x00\x00\x00\x00\x00\x00\x00\x00\x00\x00\x00\x00\x00\x00\x00\x00\x00\x00\x00\x00\x00\x00\x00\x00\x00\x00\x00\x00\x00\x00\x00\x00\x00\x00\x00\x00\x00\x00\x00\x00\x00\x00\x00\x00\x00\x00\x00\x00\x00\x00\x00\x00\x00\x00\x00\x00\x00\x00\x00\x00\x00\x00\x00\x00\x00\x00\x00\x00\x00\x00\x00\x00\x00\x00\x00\x00\x00\x00\x00\x00\x00\x00\x00\x00\x00\x00\x00\x00\x00\x00\x00\x00\x00\x00\x00\x00\x00\x00\x00\x00\x00\x00\x00\x00\x00\x00\x00\x00\x00\x00\x00\x00\x00\x00\x00\x00\x00\x00\x00\x00\x00\x00\x00\x00\x00\x00\x00\x00\x00\x00\x00\x00\x00\x00\x00\x00\x00\x00\x00\x00\x00\x00\x00\x00\x00\x00\x00\x00\x00\x00\x00\x00\x00\x00\x00\x00\x00\x00\x00\x00\x00\x00\x00\x00\x00\x00\x00\x00\x00\x00\x00\x00\x00\x00\x00\x00\x00\x00\x00\x00\x00\x00\x00\x00\x00\x00\x00\x00\x00\x00\x00\x00\x00\x00\x00\x00\x00\x00\x00\x00\x00\x00\x00\x00\x00\x00\x00\x00\x00\x00\x00\x00\x00\x00\x00\x00\x00\x00\x00\x00\x00\x00\x00\x00\x00\x00\x00\x00\x00\x00\x00\x00\x00\x00\x00\x00\x00\x00\x00\x00\x00\x00\x00\x00\x00\x00\x00\x00\x00\x00\x00\x00\x00\x00\x00\x00\x00\x00\x00\x00\x00\x00\x00\x00\x00\x00\x00\x00\x00\x00\x00\x00\x00\x00\x00\x00\x00\x00\x00\x00\x00\x00\x00\x00\x00\x00\x00\x00\x00\x00\x00\x00\x00\x00\x00\x00\x00\x00\x00\x00\x00\x00\x00\x00\x00\x00\x00\x00\x00\x00\x00\x00\x00\x00\x00\x00\x00\x00\x00\x00\x00\x00\x00\x00\x00\x00\x00\x00\x00\x00\x00\x00\x00\x00\x00\x00\x00\x00\x00\x00\x00\x00\x00\x00\x00\x00\x00\x00\x00\x00\x00\x00\x00\x00\x00\x00\x00\x00\x00\x00\x00\x00\x00\x00\x00\x00\x00\x00\x00\x00\x00\x00\x00\x00\x00\x00\x00\x00\x00\x00\x00\x00\x00\x00\x00\x00\x00\x00\x00\x00\x00\x00\x00\x00\x00\x00\x00\x00\x00\x00\x00\x00\x00\x00\x00\x00\x00\x00\x00\x00\x00\x00\x00\x00\x00\x00\x00\x00\x00\x00\x00\x00\x00\x00\x00\x00\x00\x00\x00\x00\x00\x00\x00\x00\x00\x00\x00\x00\x00\x00\x00\x00\x00\x00\x00\x00\x00\x00\x00\x00\x00\x00\x00\x00\x00\x00\x00\x00\x00\x00\x00\x00\x00\x00\x00\x00\x00\x00\x00\x00\x00\x00\x00\x00\x00\x00\x00\x00\x00\x00\x00\x00\x00\x00\x00\x00\x00\x00\x00\x00\x00\x00\x00\x00\x00\x00\x00\x00\x00\x00\x00\x00\x00\x00\x00\x00\x00\x00\x00\x00\x00\x00\x00\x00\x00\x00\x00\x00\x00\x00\x00\x00\x00\x00\x00\x00\x00\x00\x00\x00\x00\x00\x00\x00\x00\x00\x00\x00\x00\x00\x00\x00\x00\x00\x00\x00\x00\x00\x00\x00\x00\x00\x00\x00\x00\x00\x00\x00\x00\x00\x00\x00\x00\x00\x00\x00\x00\x00\x00\x00\x00\x00\x00\x00\x00\x00\x00\x00\x00\x00\x00\x00\x00\x00\x00\x00\x00\x00\x00\x00\x00\x00\x00\x00\x00\x00\x00\x00\x00\x00\x00\x00\x00\x00\x00\x00\x00\x00\x00\x00\x00\x00\x00\x00\x00\x00\x00\x00\x00\x00\x00\x00\x00\x00\x00\x00\x00\x00\x00\x00\x00\x00\x00\x00\x00\x00\x00\x00\x00\x00\x00\x00\x00\x00\x00\x00\x00\x00\x00\x00\x00\x00\x00\x00\x00\x00\x00\x00\x00\x00\x00\x00\x00\x00\x00\x00\x00\x00\x00\x00\x00\x00\x00\x00\x00\x00\x00\x00\x00\x00\x00\x00\x00\x00\x00\x00\x00\x00\x00\x00\x00\x00\x00\x00\x00\x00\x00\x00\x00\x00\x00\x00\x00\x00\x00\x00\x00\x00\x00\x00\x00\x00\x00\x00\x00\x00\x00\x00\x00\x00\x00\x00\x00\x00\x00\x00\x00\x00\x00\x00\x00\x00\x00\x00\x00\x00\x00\x00\x00\x00\x00\x00\x00\x00\x00\x00\x00\x00\x00\x00\x00\x00\x00\x00\x00\x00\x00\x00\x00\x00\x00\x00\x00\x00\x00\x00\x00\x00\x00\x00\x00\x00\x00\x00\x00\x00\x00\x00\x00\x00\x00\x00\x00\x00\x00\x00\x00\x00\x00\x00\x00\x00\x00\x00\x00\x00\x00\x00\x00\x00\x00\x00\x00\x00\x00\x00\x00\x00\x00\x00\x00\x00\x00\x00\x00\x00\x00\x00\x00\x00\x00\x00\x00\x00\x00\x00\x00\x00\x00\x00\x00\x00\x00\x00\x00\x00\x00\x00\x00\x00\x00\x00\x00\x00\x00\x00\x00\x00\x00\x00\x00\x00\x00\x00\x00\x00\x00\x00\x00\x00\x00\x00\x00\x00\x00\x00\x00\x00\x00\x00\x00\x00\x00\x00\x00\x00\x00\x00\x00\x00\x00\x00\x00\x00\x00\x00\x00\x00\x00\x00\x00\x00\x00\x00\x00\x00\x00\x00\x00\x00\x00\x00\x00\x00\x00\x00\x00\x00\x00\x00\x00\x00\x00\x00\x00\x00\x00\x00\x00\x00\x00\x00\x00\x00\x00\x00\x00\x00\x00\x00\x00\x00\x00\x00\x00\x00\x00\x00\x00\x00\x00\x00\x00\x00\x00\x00\x00\x00\x00\x00\x00\x00\x00\x00\x00\x00\x00\x00\x00\x00\x00\x00\x00\x00\x00\x00\x00\x00\x00\x00\x00\x00\x00\x00\x00\x00\x00\x00\x00\x00\x00\x00\x00\x00\x00\x00\x00\x00\x00\x00\x00\x00\x00\x00\x00\x00\x00\x00\x00\x00\x00\x00\x00\x00\x00\x00\x00\x00\x00\x00\x00\x00\x00\x00\x00\x00\x00\x00\x00\x00\x00\x00\x00\x00\x00\x00\x00\x00\x00\x00\x00\x00\x00\x00\x00\x00\x00\x00\x00\x00\x00\x00\x00\x00\x00\x00\x00\x00\x00\x00\x00\x00\x00\x00\x00\x00\x00\x00\x00\x00\x00\x00\x00\x00\x00\x00\x00\x00\x00\x00\x00\x00\x00\x00\x00\x00\x00\x00\x00\x00\x00\x00\x00\x00\x00\x00\x00\x00\x00\x00\x00\x00\x00\x00\x00\x00\x00\x00\x00\x00\x00\x00\x00\x00\x00\x00\x00\x00\x00\x00\x00\x00\x00\x00\x00\x00\x00\x00\x00\x00\x00\x00\x00\x00\x00\x00\x00\x00\x00\x00\x00\x00\x00\x00\x00\x00\x00\x00\x00\x00\x00\x00\x00\x00\x00\x00\x00\x00\x00\x00\x00\x00\x00\x00\x00\x00\x00\x00\x00\x00\x00\x00\x00\x00\x00\x00\x00\x00\x00\x00\x00\x00\x00\x00\x00\x00\x00\x00\x00\x00\x00\x00\x00\x00\x00\x00\x00\x00\x00\x00\x00\x00\x00\x00\x00\x00\x00\x00\x00\x00\x00\x00\x00\x00\x00\x00\x00\x00\x00\x00\x00\x00\x00\x00\x00\x00\x00\x00\x00\x00\x00\x00\x00\x00\x00\x00\x00\x00\x00\x00\x00\x00\x00\x00\x00\x00\x00\x00\x00\x00\x00\x00\x00\x00\x00\x00\x00\x00\x00\x00\x00\x00\x00\x00\x00\x00\x00\x00\x00\x00\x00\x00\x00\x00\x00\x00\x00\x00\x00\x00\x00\x00\x00\x00\x00\x00\x00\x00\x00\x00\x00\x00\x00\x00\x00\x00\x00\x00\x00\x00\x00\x00\x00\x00\x00\x00\x00\x00\x00\x00\x00\x00\x00\x00\x00\x00\x00\x00\x00\x00\x00\x00\x00\x00\x00\x00\x00\x00\x00\x00\x00\x00\x00\x00\x00\x00\x00\x00\x00\x00\x00\x00\x00\x00\x00\x00\x00\x00\x00\x00\x00\x00\x00\x00\x00\x00\x00\x00\x00\x00\x00\x00\x00\x00\x00\x00\x00\x00\x00\x00\x00\x00\x00\x00\x00\x00\x00\x00\x00\x00\x00\x00\x00\x00\x00\x00\x00\x00\x00\x00\x00\x00\x00\x00\x00\x00\x00\x00\x00\x00\x00\x00\x00\x00\x00\x00\x00\x00\x00\x00\x00\x00\x00\x00\x00\x00\x00\x00\x00\x00\x00\x00\x00\x00\x00\x00\x00\x00\x00\x00\x00\x00\x00\x00\x00\x00\x00\x00\x00\x00\x00\x00\x00\x00\x00\x00\x00\x00\x00\x00\x00\x00\x00\x00\x00\x00\x00\x00\x00\x00\x00\x00\x00\x00\x00\x00\x00\x00\x00\x00\x00\x00\x00\x00\x00\x00\x00\x00\x00\x00\x00\x00\x00\x00\x00\x00\x00\x00\x00\x00\x00\x00\x00\x00\x00\x00\x00\x00\x00\x00\x00\x00\x00\x00\x00\x00\x00\x00\x00\x00\x00\x00\x00\x00\x00\x00\x00\x00\x00\x00\x00\x00\x00\x00\x00\x00\x00\x00\x00\x00\x00\x00\x00\x00\x00\x00\x00\x00\x00\x00\x00\x00\x00\x00\x00\x00\x00\x00\x00\x00\x00\x00\x00\x00\x00\x00\x00\x00\x00\x00\x00\x00\x00\x00\x00\x00\x00\x00\x00\x00\x00\x00\x00\x00\x00\x00\x00\x00\x00\x00\x00\x00\x00\x00\x00\x00\x00\x00\x00\x00\x00\x00\x00\x00\x00\x00\x00\x00\x00\x00\x00\x00\x00\x00\x00\x00\x00\x00\x00\x00\x00\x00\x00\x00\x00\x00\x00\x00\x00\x00\x00\x00\x00\x00\x00\x00\x00\x00\x00\x00\x00\x00\x00\x00\x00\x00\x00\x00\x00\x00\x00\x00\x00\x00\x00\x00\x00\x00\x00\x00\x00\x00\x00\x00\x00\x00\x00\x00\x00\x00\x00\x00\x00\x00\x00\x00\x00\x00\x00\x00\x00\x00\x00\x00\x00\x00\x00\x00\x00\x00\x00\x00\x00\x00\x00\x00\x00\x00\x00\x00\x00\x00\x00\x00\x00\x00\x00\x00\x00\x00\x00\x00\x00\x00\x00\x00\x00\x00\x00\x00\x00\x00\x00\x00\x00\x00\x00\x00\x00\x00\x00\x00\x00\x00\x00\x00\x00\x00\x00\x00\x00\x00\x00\x00\x00\x00\x00\x00\x00\x00\x00\x00\x00\x00\x00\x00\x00\x00\x00\x00\x00\x00\x00\x00\x00\x00\x00\x00\x00\x00\x00\x00\x00\x00\x00\x00\x00\x00\x00\x00\x00\x00\x00\x00\x00\x00\x00\x00\x00\x00\x00\x00\x00\x00\x00\x00\x00\x00\x00\x00\x00\x00\x00\x00\x00\x00\x00\x00\x00\x00\x00\x00\x00\x00\x00\x00\x00\x00\x00\x00\x00\x00\x00\x00\x00\x00\x00\x00\x00\x00\x00\x00\x00\x00\x00\x00\x00\x00\x00\x00\x00\x00\x00\x00\x00\x00\x00\x00\x00\x00\x00\x00\x00\x00\x00\x00\x00\x00\x00\x00\x00\x00\x00\x00\x00\x00\x00\x00\x00\x00\x00\x00\x00\x00\x00\x00\x00\x00\x00\x00\x00\x00\x00\x00\x00\x00\x00\x00\x00\x00\x00\x00\x00\x00\x00\x00\x00\x00\x00\x00\x00\x00\x00\x00\x00\x00\x00\x00\x00\x00\x00\x00\x00\x00\x00\x00\x00\x00\x00\x00\x00\x00\x00\x00\x00\x00\x00\x00\x00\x00\x00\x00\x00\x00\x00\x00\x00\x00\x00\x00\x00\x00\x00\x00\x00\x00\x00\x00\x00\x00\x00\x00\x00\x00\x00\x00\x00\x00\x00\x00\x00\x00\x00\x00\x00\x00\x00\x00\x00\x00\x00\x00\x00\x00\x00\x00\x00\x00\x00\x00\x00\x00\x00\x00\x00\x00\x00\x00\x00\x00\x00\x00\x00\x00\x00\x00\x00\x00\x00\x00\x00\x00\x00\x00\x00\x00\x00\x00\x00\x00\x00\x00\x00\x00\x00\x00\x00\x00\x00\x00\x00\x00\x00\x00\x00\x00\x00\x00\x00\x00\x00\x00\x00\x00\x00\x00\x00\x00\x00\x00\x00\x00\x00\x00\x00\x00\x00\x00\x00\x00\x00\x00\x00\x00\x00\x00\x00\x00\x00\x00\x00\x00\x00\x00\x00\x00\x00\x00\x00\x00\x00\x00\x00\x00\x00\x00\x00\x00\x00\x00\x00\x00\x00\x00\x00\x00\x00\x00\x00\x00\x00\x00\x00\x00\x00\x00\x00\x00\x00\x00\x00\x00\x00\x00\x00\x00\x00\x00\x00\x00\x00\x00\x00\x00\x00\x00\x00\x00\x00\x00\x00\x00\x00\x00\x00\x00\x00\x00\x00\x00'
p4461
sasS'lhc:fillnumber'
p4462
(lp4463
(dp4464
g5
L211L
sg6
I01
sg7
I1
sg8
S'6877'
p4465
sasS'olc:beam1intensity'
p4466
(lp4467
(dp4468
g5
I1
sg6
I01
sg7
I1
sg8
S'74.0524'
p4469
sa(dp4470
g5
I2
sg6
I01
sg7
I2
sg8
S'74.0421'
p4471
sa(dp4472
g5
I3
sg6
I01
sg7
I3
sg8
S'74.0365'
p4473
sa(dp4474
g5
I4
sg6
I01
sg7
I4
sg8
S'74.0327'
p4475
sa(dp4476
g5
I5
sg6
I01
sg7
I5
sg8
S'74.0293'
p4477
sa(dp4478
g5
I6
sg6
I01
sg7
I6
sg8
S'72.3642'
p4479
sa(dp4480
g5
I7
sg6
I01
sg7
I7
sg8
S'72.3615'
p4481
sa(dp4482
g5
I8
sg6
I01
sg7
I8
sg8
S'72.3582'
p4483
sa(dp4484
g5
I9
sg6
I01
sg7
I9
sg8
S'72.3516'
p4485
sa(dp4486
g5
I10
sg6
I01
sg7
I10
sg8
S'72.3445'
p4487
sa(dp4488
g5
I11
sg6
I01
sg7
I11
sg8
S'72.3374'
p4489
sa(dp4490
g5
I12
sg6
I01
sg7
I12
sg8
S'72.327'
p4491
sa(dp4492
g5
I13
sg6
I01
sg7
I13
sg8
S'72.3169'
p4493
sa(dp4494
g5
I14
sg6
I01
sg7
I14
sg8
S'72.3086'
p4495
sa(dp4496
g5
I15
sg6
I01
sg7
I15
sg8
S'72.298'
p4497
sa(dp4498
g5
I16
sg6
I01
sg7
I16
sg8
S'72.2927'
p4499
sa(dp4500
g5
I17
sg6
I01
sg7
I17
sg8
S'72.2857'
p4501
sa(dp4502
g5
I18
sg6
I01
sg7
I18
sg8
S'72.276'
p4503
sa(dp4504
g5
I19
sg6
I01
sg7
I19
sg8
S'72.2678'
p4505
sa(dp4506
g5
I20
sg6
I01
sg7
I20
sg8
S'72.2586'
p4507
sa(dp4508
g5
I21
sg6
I01
sg7
I21
sg8
S'72.2479'
p4509
sa(dp4510
g5
I22
sg6
I01
sg7
I22
sg8
S'72.2389'
p4511
sa(dp4512
g5
I23
sg6
I01
sg7
I23
sg8
S'72.2343'
p4513
sa(dp4514
g5
I24
sg6
I01
sg7
I24
sg8
S'72.2282'
p4515
sa(dp4516
g5
I25
sg6
I01
sg7
I25
sg8
S'72.2207'
p4517
sa(dp4518
g5
I26
sg6
I01
sg7
I26
sg8
S'72.2134'
p4519
sa(dp4520
g5
I27
sg6
I01
sg7
I27
sg8
S'72.204'
p4521
sa(dp4522
g5
I28
sg6
I01
sg7
I28
sg8
S'72.1968'
p4523
sa(dp4524
g5
I29
sg6
I01
sg7
I29
sg8
S'72.1901'
p4525
sa(dp4526
g5
I30
sg6
I01
sg7
I30
sg8
S'72.1887'
p4527
sa(dp4528
g5
I31
sg6
I01
sg7
I31
sg8
S'72.1866'
p4529
sa(dp4530
g5
I32
sg6
I01
sg7
I32
sg8
S'72.1835'
p4531
sa(dp4532
g5
I33
sg6
I01
sg7
I33
sg8
S'72.175'
p4533
sa(dp4534
g5
I34
sg6
I01
sg7
I34
sg8
S'72.1672'
p4535
sa(dp4536
g5
I35
sg6
I01
sg7
I35
sg8
S'72.1607'
p4537
sa(dp4538
g5
I37
sg6
I01
sg7
I36
sg8
S'72.1559'
p4539
sa(dp4540
g5
I38
sg6
I01
sg7
I38
sg8
S'72.1503'
p4541
sa(dp4542
g5
I39
sg6
I01
sg7
I39
sg8
S'72.1428'
p4543
sa(dp4544
g5
I40
sg6
I01
sg7
I40
sg8
S'72.1353'
p4545
sa(dp4546
g5
I41
sg6
I01
sg7
I41
sg8
S'72.1307'
p4547
sa(dp4548
g5
I42
sg6
I01
sg7
I42
sg8
S'72.1226'
p4549
sa(dp4550
g5
I43
sg6
I01
sg7
I43
sg8
S'72.1157'
p4551
sa(dp4552
g5
I44
sg6
I01
sg7
I44
sg8
S'72.1111'
p4553
sa(dp4554
g5
I45
sg6
I01
sg7
I45
sg8
S'72.105'
p4555
sa(dp4556
g5
I46
sg6
I01
sg7
I46
sg8
S'72.1002'
p4557
sa(dp4558
g5
I47
sg6
I01
sg7
I47
sg8
S'72.0952'
p4559
sa(dp4560
g5
I48
sg6
I01
sg7
I48
sg8
S'72.0891'
p4561
sa(dp4562
g5
I49
sg6
I01
sg7
I49
sg8
S'72.086'
p4563
sa(dp4564
g5
I50
sg6
I01
sg7
I50
sg8
S'72.0837'
p4565
sa(dp4566
g5
I51
sg6
I01
sg7
I51
sg8
S'72.0817'
p4567
sa(dp4568
g5
I52
sg6
I01
sg7
I52
sg8
S'72.0816'
p4569
sa(dp4570
g5
I53
sg6
I01
sg7
I53
sg8
S'72.0811'
p4571
sa(dp4572
g5
I54
sg6
I01
sg7
I54
sg8
S'72.0798'
p4573
sa(dp4574
g5
I55
sg6
I01
sg7
I55
sg8
S'72.0778'
p4575
sa(dp4576
g5
I56
sg6
I01
sg7
I56
sg8
S'72.076'
p4577
sa(dp4578
g5
I57
sg6
I01
sg7
I57
sg8
S'72.0744'
p4579
sa(dp4580
g5
I58
sg6
I01
sg7
I58
sg8
S'72.0731'
p4581
sa(dp4582
g5
I59
sg6
I01
sg7
I59
sg8
S'72.0738'
p4583
sa(dp4584
g5
I60
sg6
I01
sg7
I60
sg8
S'72.0699'
p4585
sa(dp4586
g5
I61
sg6
I01
sg7
I61
sg8
S'72.0669'
p4587
sa(dp4588
g5
I62
sg6
I01
sg7
I62
sg8
S'72.0641'
p4589
sa(dp4590
g5
I63
sg6
I01
sg7
I63
sg8
S'72.0632'
p4591
sa(dp4592
g5
I64
sg6
I01
sg7
I64
sg8
S'72.0592'
p4593
sa(dp4594
g5
I65
sg6
I01
sg7
I65
sg8
S'72.0518'
p4595
sa(dp4596
g5
I66
sg6
I01
sg7
I66
sg8
S'72.0399'
p4597
sa(dp4598
g5
I67
sg6
I01
sg7
I67
sg8
S'72.0358'
p4599
sa(dp4600
g5
I68
sg6
I01
sg7
I68
sg8
S'72.0306'
p4601
sa(dp4602
g5
I69
sg6
I01
sg7
I69
sg8
S'72.0274'
p4603
sa(dp4604
g5
I70
sg6
I01
sg7
I70
sg8
S'72.0229'
p4605
sa(dp4606
g5
I71
sg6
I01
sg7
I71
sg8
S'72.0198'
p4607
sa(dp4608
g5
I72
sg6
I01
sg7
I72
sg8
S'72.0154'
p4609
sa(dp4610
g5
I73
sg6
I01
sg7
I73
sg8
S'72.0106'
p4611
sa(dp4612
g5
I74
sg6
I01
sg7
I74
sg8
S'72.0057'
p4613
sa(dp4614
g5
I75
sg6
I01
sg7
I75
sg8
S'72.0009'
p4615
sa(dp4616
g5
I76
sg6
I01
sg7
I76
sg8
S'71.9978'
p4617
sa(dp4618
g5
I77
sg6
I01
sg7
I77
sg8
S'71.9942'
p4619
sa(dp4620
g5
I78
sg6
I01
sg7
I78
sg8
S'71.9888'
p4621
sa(dp4622
g5
I79
sg6
I01
sg7
I79
sg8
S'71.9819'
p4623
sa(dp4624
g5
I80
sg6
I01
sg7
I80
sg8
S'71.9769'
p4625
sa(dp4626
g5
I81
sg6
I01
sg7
I81
sg8
S'71.974'
p4627
sa(dp4628
g5
I82
sg6
I01
sg7
I82
sg8
S'71.9684'
p4629
sa(dp4630
g5
I83
sg6
I01
sg7
I83
sg8
S'71.9559'
p4631
sa(dp4632
g5
I84
sg6
I01
sg7
I84
sg8
S'71.9413'
p4633
sa(dp4634
g5
I85
sg6
I01
sg7
I85
sg8
S'71.9331'
p4635
sa(dp4636
g5
I86
sg6
I01
sg7
I86
sg8
S'71.9266'
p4637
sa(dp4638
g5
I87
sg6
I01
sg7
I87
sg8
S'71.9222'
p4639
sa(dp4640
g5
I88
sg6
I01
sg7
I88
sg8
S'71.9178'
p4641
sa(dp4642
g5
I89
sg6
I01
sg7
I89
sg8
S'71.9156'
p4643
sa(dp4644
g5
I90
sg6
I01
sg7
I90
sg8
S'71.9148'
p4645
sa(dp4646
g5
I92
sg6
I01
sg7
I91
sg8
S'71.9119'
p4647
sa(dp4648
g5
I93
sg6
I01
sg7
I93
sg8
S'71.9107'
p4649
sa(dp4650
g5
I94
sg6
I01
sg7
I94
sg8
S'71.908'
p4651
sa(dp4652
g5
I95
sg6
I01
sg7
I95
sg8
S'71.9087'
p4653
sa(dp4654
g5
I96
sg6
I01
sg7
I96
sg8
S'71.9066'
p4655
sa(dp4656
g5
I97
sg6
I01
sg7
I97
sg8
S'71.9029'
p4657
sa(dp4658
g5
I98
sg6
I01
sg7
I98
sg8
S'71.9012'
p4659
sa(dp4660
g5
I99
sg6
I01
sg7
I99
sg8
S'71.8964'
p4661
sa(dp4662
g5
I100
sg6
I01
sg7
I100
sg8
S'71.8966'
p4663
sa(dp4664
g5
I101
sg6
I01
sg7
I101
sg8
S'71.8933'
p4665
sa(dp4666
g5
I102
sg6
I01
sg7
I102
sg8
S'71.8879'
p4667
sa(dp4668
g5
I103
sg6
I01
sg7
I103
sg8
S'71.8828'
p4669
sa(dp4670
g5
I104
sg6
I01
sg7
I104
sg8
S'71.8715'
p4671
sa(dp4672
g5
I105
sg6
I01
sg7
I105
sg8
S'71.8543'
p4673
sa(dp4674
g5
I106
sg6
I01
sg7
I106
sg8
S'71.8506'
p4675
sa(dp4676
g5
I107
sg6
I01
sg7
I107
sg8
S'71.8455'
p4677
sa(dp4678
g5
I108
sg6
I01
sg7
I108
sg8
S'71.8445'
p4679
sa(dp4680
g5
I109
sg6
I01
sg7
I109
sg8
S'71.8366'
p4681
sa(dp4682
g5
I110
sg6
I01
sg7
I110
sg8
S'71.8306'
p4683
sa(dp4684
g5
I111
sg6
I01
sg7
I111
sg8
S'71.8269'
p4685
sa(dp4686
g5
I112
sg6
I01
sg7
I112
sg8
S'71.821'
p4687
sa(dp4688
g5
I113
sg6
I01
sg7
I113
sg8
S'71.8178'
p4689
sa(dp4690
g5
I114
sg6
I01
sg7
I114
sg8
S'71.8138'
p4691
sa(dp4692
g5
I115
sg6
I01
sg7
I115
sg8
S'71.8087'
p4693
sa(dp4694
g5
I116
sg6
I01
sg7
I116
sg8
S'71.8037'
p4695
sa(dp4696
g5
I117
sg6
I01
sg7
I117
sg8
S'71.7966'
p4697
sa(dp4698
g5
I118
sg6
I01
sg7
I118
sg8
S'71.7904'
p4699
sa(dp4700
g5
I119
sg6
I01
sg7
I119
sg8
S'71.7867'
p4701
sa(dp4702
g5
I120
sg6
I01
sg7
I120
sg8
S'71.7803'
p4703
sa(dp4704
g5
I121
sg6
I01
sg7
I121
sg8
S'71.7751'
p4705
sa(dp4706
g5
I122
sg6
I01
sg7
I122
sg8
S'71.7599'
p4707
sa(dp4708
g5
I123
sg6
I01
sg7
I123
sg8
S'71.7449'
p4709
sa(dp4710
g5
I124
sg6
I01
sg7
I124
sg8
S'71.7358'
p4711
sa(dp4712
g5
I125
sg6
I01
sg7
I125
sg8
S'71.7263'
p4713
sa(dp4714
g5
I126
sg6
I01
sg7
I126
sg8
S'71.7188'
p4715
sa(dp4716
g5
I127
sg6
I01
sg7
I127
sg8
S'71.7105'
p4717
sa(dp4718
g5
I128
sg6
I01
sg7
I128
sg8
S'71.7027'
p4719
sa(dp4720
g5
I129
sg6
I01
sg7
I129
sg8
S'71.6966'
p4721
sa(dp4722
g5
I130
sg6
I01
sg7
I130
sg8
S'71.6908'
p4723
sa(dp4724
g5
I131
sg6
I01
sg7
I131
sg8
S'71.6817'
p4725
sa(dp4726
g5
I132
sg6
I01
sg7
I132
sg8
S'71.6639'
p4727
sa(dp4728
g5
I133
sg6
I01
sg7
I133
sg8
S'71.6444'
p4729
sa(dp4730
g5
I134
sg6
I01
sg7
I134
sg8
S'71.6219'
p4731
sa(dp4732
g5
I135
sg6
I01
sg7
I135
sg8
S'71.5994'
p4733
sa(dp4734
g5
I136
sg6
I01
sg7
I136
sg8
S'71.5807'
p4735
sa(dp4736
g5
I137
sg6
I01
sg7
I137
sg8
S'71.5667'
p4737
sa(dp4738
g5
I138
sg6
I01
sg7
I138
sg8
S'71.5545'
p4739
sa(dp4740
g5
I139
sg6
I01
sg7
I139
sg8
S'71.5398'
p4741
sa(dp4742
g5
I140
sg6
I01
sg7
I140
sg8
S'71.5216'
p4743
sa(dp4744
g5
I141
sg6
I01
sg7
I141
sg8
S'71.5091'
p4745
sa(dp4746
g5
I142
sg6
I01
sg7
I142
sg8
S'71.498'
p4747
sa(dp4748
g5
I143
sg6
I01
sg7
I143
sg8
S'71.4908'
p4749
sa(dp4750
g5
I144
sg6
I01
sg7
I144
sg8
S'71.4834'
p4751
sa(dp4752
g5
I145
sg6
I01
sg7
I145
sg8
S'71.4751'
p4753
sa(dp4754
g5
I146
sg6
I01
sg7
I146
sg8
S'71.4672'
p4755
sa(dp4756
g5
I147
sg6
I01
sg7
I147
sg8
S'71.4598'
p4757
sa(dp4758
g5
I148
sg6
I01
sg7
I148
sg8
S'71.4543'
p4759
sa(dp4760
g5
I149
sg6
I01
sg7
I149
sg8
S'71.4474'
p4761
sa(dp4762
g5
I150
sg6
I01
sg7
I150
sg8
S'71.4385'
p4763
sa(dp4764
g5
I151
sg6
I01
sg7
I151
sg8
S'71.4302'
p4765
sa(dp4766
g5
I152
sg6
I01
sg7
I152
sg8
S'71.4221'
p4767
sa(dp4768
g5
I153
sg6
I01
sg7
I153
sg8
S'71.4136'
p4769
sa(dp4770
g5
I154
sg6
I01
sg7
I154
sg8
S'71.4062'
p4771
sa(dp4772
g5
I155
sg6
I01
sg7
I155
sg8
S'71.3969'
p4773
sa(dp4774
g5
I156
sg6
I01
sg7
I156
sg8
S'71.3908'
p4775
sa(dp4776
g5
I157
sg6
I01
sg7
I157
sg8
S'71.3832'
p4777
sa(dp4778
g5
I158
sg6
I01
sg7
I158
sg8
S'71.3753'
p4779
sa(dp4780
g5
I159
sg6
I01
sg7
I159
sg8
S'71.3685'
p4781
sa(dp4782
g5
I160
sg6
I01
sg7
I160
sg8
S'71.3624'
p4783
sa(dp4784
g5
I161
sg6
I01
sg7
I161
sg8
S'71.3532'
p4785
sa(dp4786
g5
I162
sg6
I01
sg7
I162
sg8
S'71.3439'
p4787
sa(dp4788
g5
I163
sg6
I01
sg7
I163
sg8
S'71.3364'
p4789
sa(dp4790
g5
I164
sg6
I01
sg7
I164
sg8
S'71.3281'
p4791
sa(dp4792
g5
I165
sg6
I01
sg7
I165
sg8
S'71.3222'
p4793
sa(dp4794
g5
I166
sg6
I01
sg7
I166
sg8
S'71.3141'
p4795
sa(dp4796
g5
I167
sg6
I01
sg7
I167
sg8
S'71.3065'
p4797
sa(dp4798
g5
I168
sg6
I01
sg7
I168
sg8
S'71.2983'
p4799
sa(dp4800
g5
I169
sg6
I01
sg7
I169
sg8
S'71.2928'
p4801
sa(dp4802
g5
I170
sg6
I01
sg7
I170
sg8
S'71.2842'
p4803
sa(dp4804
g5
I171
sg6
I01
sg7
I171
sg8
S'71.2754'
p4805
sa(dp4806
g5
I172
sg6
I01
sg7
I172
sg8
S'71.2693'
p4807
sa(dp4808
g5
I173
sg6
I01
sg7
I173
sg8
S'71.26'
p4809
sa(dp4810
g5
I174
sg6
I01
sg7
I174
sg8
S'71.2521'
p4811
sa(dp4812
g5
I175
sg6
I01
sg7
I175
sg8
S'71.2455'
p4813
sa(dp4814
g5
I176
sg6
I01
sg7
I176
sg8
S'71.236'
p4815
sa(dp4816
g5
I177
sg6
I01
sg7
I177
sg8
S'71.2253'
p4817
sa(dp4818
g5
I178
sg6
I01
sg7
I178
sg8
S'71.2205'
p4819
sa(dp4820
g5
I179
sg6
I01
sg7
I179
sg8
S'71.2147'
p4821
sa(dp4822
g5
I180
sg6
I01
sg7
I180
sg8
S'71.2067'
p4823
sa(dp4824
g5
I181
sg6
I01
sg7
I181
sg8
S'71.1969'
p4825
sa(dp4826
g5
I182
sg6
I01
sg7
I182
sg8
S'71.1891'
p4827
sa(dp4828
g5
I183
sg6
I01
sg7
I183
sg8
S'71.1828'
p4829
sa(dp4830
g5
I184
sg6
I01
sg7
I184
sg8
S'71.1728'
p4831
sa(dp4832
g5
I185
sg6
I01
sg7
I185
sg8
S'71.1663'
p4833
sa(dp4834
g5
I186
sg6
I01
sg7
I186
sg8
S'71.1558'
p4835
sa(dp4836
g5
I187
sg6
I01
sg7
I187
sg8
S'71.1474'
p4837
sa(dp4838
g5
I188
sg6
I01
sg7
I188
sg8
S'71.1384'
p4839
sa(dp4840
g5
I189
sg6
I01
sg7
I189
sg8
S'71.1301'
p4841
sa(dp4842
g5
I190
sg6
I01
sg7
I190
sg8
S'71.1203'
p4843
sa(dp4844
g5
I191
sg6
I01
sg7
I191
sg8
S'71.1108'
p4845
sa(dp4846
g5
I192
sg6
I01
sg7
I192
sg8
S'71.1041'
p4847
sa(dp4848
g5
I193
sg6
I01
sg7
I193
sg8
S'71.0963'
p4849
sa(dp4850
g5
I194
sg6
I01
sg7
I194
sg8
S'71.0871'
p4851
sa(dp4852
g5
I195
sg6
I01
sg7
I195
sg8
S'71.0785'
p4853
sa(dp4854
g5
I196
sg6
I01
sg7
I196
sg8
S'71.0694'
p4855
sa(dp4856
g5
I197
sg6
I01
sg7
I197
sg8
S'71.0609'
p4857
sa(dp4858
g5
I198
sg6
I01
sg7
I198
sg8
S'71.0524'
p4859
sa(dp4860
g5
I199
sg6
I01
sg7
I199
sg8
S'71.0421'
p4861
sa(dp4862
g5
I200
sg6
I01
sg7
I200
sg8
S'71.0326'
p4863
sa(dp4864
g5
I201
sg6
I01
sg7
I201
sg8
S'71.0237'
p4865
sa(dp4866
g5
I202
sg6
I01
sg7
I202
sg8
S'71.0158'
p4867
sa(dp4868
g5
I203
sg6
I01
sg7
I203
sg8
S'71.0069'
p4869
sa(dp4870
g5
I204
sg6
I01
sg7
I204
sg8
S'70.9985'
p4871
sa(dp4872
g5
I205
sg6
I01
sg7
I205
sg8
S'70.9909'
p4873
sa(dp4874
g5
I206
sg6
I01
sg7
I206
sg8
S'70.9809'
p4875
sa(dp4876
g5
I207
sg6
I01
sg7
I207
sg8
S'70.9743'
p4877
sa(dp4878
g5
I208
sg6
I01
sg7
I208
sg8
S'0.751214'
p4879
sa(dp4880
g5
L211L
sg6
I01
sg7
I209
sg8
g4427
sasS'Start and endtime'
p4881
S'1530519451.851, 1530528005.859'
p4882
sS'olc:lumi:0'
p4883
(lp4884
(dp4885
g5
L1L
sg6
I01
sg7
L1L
sg8
F2.79758
sa(dp4886
g5
L2L
sg6
I01
sg7
L2L
sg8
F2.79657
sa(dp4887
g5
L3L
sg6
I01
sg7
L3L
sg8
F2.79492
sa(dp4888
g5
L4L
sg6
I01
sg7
L4L
sg8
F2.78563
sa(dp4889
g5
L5L
sg6
I01
sg7
L5L
sg8
F2.78752
sa(dp4890
g5
L6L
sg6
I01
sg7
L6L
sg8
F2.65025
sa(dp4891
g5
L7L
sg6
I01
sg7
L7L
sg8
F2.6452
sa(dp4892
g5
L8L
sg6
I01
sg7
L8L
sg8
F2.65091
sa(dp4893
g5
L9L
sg6
I01
sg7
L9L
sg8
F2.64331
sa(dp4894
g5
L10L
sg6
I01
sg7
L10L
sg8
F2.63699
sa(dp4895
g5
L11L
sg6
I01
sg7
L11L
sg8
F2.63878
sa(dp4896
g5
L12L
sg6
I01
sg7
L12L
sg8
F2.63113
sa(dp4897
g5
L13L
sg6
I01
sg7
L13L
sg8
F2.62905
sa(dp4898
g5
L14L
sg6
I01
sg7
L14L
sg8
F2.62642
sa(dp4899
g5
L15L
sg6
I01
sg7
L15L
sg8
F2.62042
sa(dp4900
g5
L16L
sg6
I01
sg7
L16L
sg8
F2.62088
sa(dp4901
g5
L17L
sg6
I01
sg7
L17L
sg8
F2.61372
sa(dp4902
g5
L18L
sg6
I01
sg7
L18L
sg8
F2.61231
sa(dp4903
g5
L19L
sg6
I01
sg7
L19L
sg8
F2.60622
sa(dp4904
g5
L20L
sg6
I01
sg7
L20L
sg8
F2.60259
sa(dp4905
g5
L21L
sg6
I01
sg7
L21L
sg8
F2.59996
sa(dp4906
g5
L22L
sg6
I01
sg7
L22L
sg8
F2.59752
sa(dp4907
g5
L23L
sg6
I01
sg7
L23L
sg8
F2.59488
sa(dp4908
g5
L24L
sg6
I01
sg7
L24L
sg8
F2.59021
sa(dp4909
g5
L25L
sg6
I01
sg7
L25L
sg8
F2.58677
sa(dp4910
g5
L26L
sg6
I01
sg7
L26L
sg8
F2.58423
sa(dp4911
g5
L27L
sg6
I01
sg7
L27L
sg8
F2.57853
sa(dp4912
g5
L28L
sg6
I01
sg7
L28L
sg8
F2.57608
sa(dp4913
g5
L29L
sg6
I01
sg7
L29L
sg8
F2.57338
sa(dp4914
g5
L30L
sg6
I01
sg7
L30L
sg8
F2.57081
sa(dp4915
g5
L31L
sg6
I01
sg7
L31L
sg8
F2.57211
sa(dp4916
g5
L32L
sg6
I01
sg7
L32L
sg8
F2.56695
sa(dp4917
g5
L33L
sg6
I01
sg7
L33L
sg8
F2.56769
sa(dp4918
g5
L34L
sg6
I01
sg7
L34L
sg8
F2.56134
sa(dp4919
g5
L35L
sg6
I01
sg7
L35L
sg8
F2.56029
sa(dp4920
g5
L36L
sg6
I01
sg7
L36L
sg8
F2.55791
sa(dp4921
g5
L37L
sg6
I01
sg7
L37L
sg8
F2.55819
sa(dp4922
g5
L38L
sg6
I01
sg7
L38L
sg8
F2.55626
sa(dp4923
g5
L39L
sg6
I01
sg7
L39L
sg8
F2.55016
sa(dp4924
g5
L40L
sg6
I01
sg7
L40L
sg8
F2.54799
sa(dp4925
g5
L41L
sg6
I01
sg7
L41L
sg8
F2.54341
sa(dp4926
g5
L42L
sg6
I01
sg7
L42L
sg8
F2.54071
sa(dp4927
g5
L43L
sg6
I01
sg7
L43L
sg8
F2.53864
sa(dp4928
g5
L44L
sg6
I01
sg7
L44L
sg8
F2.53144
sa(dp4929
g5
L45L
sg6
I01
sg7
L45L
sg8
F2.52991
sa(dp4930
g5
L46L
sg6
I01
sg7
L46L
sg8
F2.52759
sa(dp4931
g5
L47L
sg6
I01
sg7
L47L
sg8
F2.12183
sa(dp4932
g5
L48L
sg6
I01
sg7
L48L
sg8
F1.69399
sa(dp4933
g5
L49L
sg6
I01
sg7
L49L
sg8
F1.96849
sa(dp4934
g5
L50L
sg6
I01
sg7
L50L
sg8
F2.14997
sa(dp4935
g5
L51L
sg6
I01
sg7
L51L
sg8
F2.31264
sa(dp4936
g5
L52L
sg6
I01
sg7
L52L
sg8
F2.42025
sa(dp4937
g5
L53L
sg6
I01
sg7
L53L
sg8
F2.47706
sa(dp4938
g5
L54L
sg6
I01
sg7
L54L
sg8
F2.51246
sa(dp4939
g5
L55L
sg6
I01
sg7
L55L
sg8
F2.50609
sa(dp4940
g5
L56L
sg6
I01
sg7
L56L
sg8
F2.4953
sa(dp4941
g5
L57L
sg6
I01
sg7
L57L
sg8
F2.43544
sa(dp4942
g5
L58L
sg6
I01
sg7
L58L
sg8
F2.3998
sa(dp4943
g5
L59L
sg6
I01
sg7
L59L
sg8
F2.29547
sa(dp4944
g5
L60L
sg6
I01
sg7
L60L
sg8
F2.23808
sa(dp4945
g5
L61L
sg6
I01
sg7
L61L
sg8
F2.10872
sa(dp4946
g5
L62L
sg6
I01
sg7
L62L
sg8
F2.02733
sa(dp4947
g5
L63L
sg6
I01
sg7
L63L
sg8
F1.86994
sa(dp4948
g5
L64L
sg6
I01
sg7
L64L
sg8
F1.7756
sa(dp4949
g5
L65L
sg6
I01
sg7
L65L
sg8
F1.4952
sa(dp4950
g5
L66L
sg6
I01
sg7
L66L
sg8
F0.127184
sa(dp4951
g5
L67L
sg6
I01
sg7
L67L
sg8
F0.393056
sa(dp4952
g5
L68L
sg6
I01
sg7
L68L
sg8
F0.664418
sa(dp4953
g5
L69L
sg6
I01
sg7
L69L
sg8
F1.19741
sa(dp4954
g5
L70L
sg6
I01
sg7
L70L
sg8
F1.62329
sa(dp4955
g5
L71L
sg6
I01
sg7
L71L
sg8
F2.06387
sa(dp4956
g5
L72L
sg6
I01
sg7
L72L
sg8
F2.38262
sa(dp4957
g5
L73L
sg6
I01
sg7
L73L
sg8
F2.41753
sa(dp4958
g5
L74L
sg6
I01
sg7
L74L
sg8
F2.41956
sa(dp4959
g5
L75L
sg6
I01
sg7
L75L
sg8
F2.0743
sa(dp4960
g5
L76L
sg6
I01
sg7
L76L
sg8
F1.80275
sa(dp4961
g5
L77L
sg6
I01
sg7
L77L
sg8
F1.34224
sa(dp4962
g5
L78L
sg6
I01
sg7
L78L
sg8
F0.993307
sa(dp4963
g5
L79L
sg6
I01
sg7
L79L
sg8
F0.668421
sa(dp4964
g5
L80L
sg6
I01
sg7
L80L
sg8
F0.42027
sa(dp4965
g5
L81L
sg6
I01
sg7
L81L
sg8
F0.263487
sa(dp4966
g5
L82L
sg6
I01
sg7
L82L
sg8
F0.147409
sa(dp4967
g5
L83L
sg6
I01
sg7
L83L
sg8
F1.47313
sa(dp4968
g5
L84L
sg6
I01
sg7
L84L
sg8
F2.44081
sa(dp4969
g5
L85L
sg6
I01
sg7
L85L
sg8
F2.47465
sa(dp4970
g5
L86L
sg6
I01
sg7
L86L
sg8
F2.02296
sa(dp4971
g5
L87L
sg6
I01
sg7
L87L
sg8
F1.4364
sa(dp4972
g5
L88L
sg6
I01
sg7
L88L
sg8
F1.64382
sa(dp4973
g5
L89L
sg6
I01
sg7
L89L
sg8
F1.80879
sa(dp4974
g5
L90L
sg6
I01
sg7
L90L
sg8
F2.00659
sa(dp4975
g5
L91L
sg6
I01
sg7
L91L
sg8
F2.15249
sa(dp4976
g5
L92L
sg6
I01
sg7
L92L
sg8
F2.29048
sa(dp4977
g5
L93L
sg6
I01
sg7
L93L
sg8
F2.38813
sa(dp4978
g5
L94L
sg6
I01
sg7
L94L
sg8
F2.44146
sa(dp4979
g5
L95L
sg6
I01
sg7
L95L
sg8
F2.46672
sa(dp4980
g5
L96L
sg6
I01
sg7
L96L
sg8
F2.4202
sa(dp4981
g5
L97L
sg6
I01
sg7
L97L
sg8
F2.3785
sa(dp4982
g5
L98L
sg6
I01
sg7
L98L
sg8
F2.25003
sa(dp4983
g5
L99L
sg6
I01
sg7
L99L
sg8
F2.13019
sa(dp4984
g5
L100L
sg6
I01
sg7
L100L
sg8
F1.9369
sa(dp4985
g5
L101L
sg6
I01
sg7
L101L
sg8
F1.78016
sa(dp4986
g5
L102L
sg6
I01
sg7
L102L
sg8
F1.56207
sa(dp4987
g5
L103L
sg6
I01
sg7
L103L
sg8
F1.39914
sa(dp4988
g5
L104L
sg6
I01
sg7
L104L
sg8
F1.328
sa(dp4989
g5
L105L
sg6
I01
sg7
L105L
sg8
F0.0285729
sa(dp4990
g5
L106L
sg6
I01
sg7
L106L
sg8
F0.0793896
sa(dp4991
g5
L107L
sg6
I01
sg7
L107L
sg8
F0.138522
sa(dp4992
g5
L108L
sg6
I01
sg7
L108L
sg8
F0.342282
sa(dp4993
g5
L109L
sg6
I01
sg7
L109L
sg8
F0.59274
sa(dp4994
g5
L110L
sg6
I01
sg7
L110L
sg8
F1.11842
sa(dp4995
g5
L111L
sg6
I01
sg7
L111L
sg8
F1.63427
sa(dp4996
g5
L112L
sg6
I01
sg7
L112L
sg8
F2.11767
sa(dp4997
g5
L113L
sg6
I01
sg7
L113L
sg8
F2.44309
sa(dp4998
g5
L114L
sg6
I01
sg7
L114L
sg8
F2.23454
sa(dp4999
g5
L115L
sg6
I01
sg7
L115L
sg8
F1.9318
sa(dp5000
g5
L116L
sg6
I01
sg7
L116L
sg8
F1.30297
sa(dp5001
g5
L117L
sg6
I01
sg7
L117L
sg8
F0.792625
sa(dp5002
g5
L118L
sg6
I01
sg7
L118L
sg8
F0.444025
sa(dp5003
g5
L119L
sg6
I01
sg7
L119L
sg8
F0.194544
sa(dp5004
g5
L120L
sg6
I01
sg7
L120L
sg8
F0.0997942
sa(dp5005
g5
L121L
sg6
I01
sg7
L121L
sg8
F0.0379481
sa(dp5006
g5
L122L
sg6
I01
sg7
L122L
sg8
F1.09686
sa(dp5007
g5
L123L
sg6
I01
sg7
L123L
sg8
F2.4385
sa(dp5008
g5
L124L
sg6
I01
sg7
L124L
sg8
F2.44396
sa(dp5009
g5
L125L
sg6
I01
sg7
L125L
sg8
F2.43898
sa(dp5010
g5
L126L
sg6
I01
sg7
L126L
sg8
F2.43509
sa(dp5011
g5
L127L
sg6
I01
sg7
L127L
sg8
F2.43684
sa(dp5012
g5
L128L
sg6
I01
sg7
L128L
sg8
F2.43034
sa(dp5013
g5
L129L
sg6
I01
sg7
L129L
sg8
F2.4256
sa(dp5014
g5
L130L
sg6
I01
sg7
L130L
sg8
F2.42825
sa(dp5015
g5
L131L
sg6
I01
sg7
L131L
sg8
F2.42264
sa(dp5016
g5
L132L
sg6
I01
sg7
L132L
sg8
F2.4186
sa(dp5017
g5
L133L
sg6
I01
sg7
L133L
sg8
F2.42128
sa(dp5018
g5
L134L
sg6
I01
sg7
L134L
sg8
F2.41114
sa(dp5019
g5
L135L
sg6
I01
sg7
L135L
sg8
F2.41086
sa(dp5020
g5
L136L
sg6
I01
sg7
L136L
sg8
F2.40474
sa(dp5021
g5
L137L
sg6
I01
sg7
L137L
sg8
F2.42395
sa(dp5022
g5
L138L
sg6
I01
sg7
L138L
sg8
F2.40464
sa(dp5023
g5
L139L
sg6
I01
sg7
L139L
sg8
F2.40168
sa(dp5024
g5
L140L
sg6
I01
sg7
L140L
sg8
F2.41399
sa(dp5025
g5
L141L
sg6
I01
sg7
L141L
sg8
F2.39938
sa(dp5026
g5
L142L
sg6
I01
sg7
L142L
sg8
F2.38615
sa(dp5027
g5
L143L
sg6
I01
sg7
L143L
sg8
F2.3841
sa(dp5028
g5
L144L
sg6
I01
sg7
L144L
sg8
F2.38032
sa(dp5029
g5
L145L
sg6
I01
sg7
L145L
sg8
F2.38244
sa(dp5030
g5
L146L
sg6
I01
sg7
L146L
sg8
F2.37719
sa(dp5031
g5
L147L
sg6
I01
sg7
L147L
sg8
F2.37485
sa(dp5032
g5
L148L
sg6
I01
sg7
L148L
sg8
F2.37354
sa(dp5033
g5
L149L
sg6
I01
sg7
L149L
sg8
F2.37035
sa(dp5034
g5
L150L
sg6
I01
sg7
L150L
sg8
F2.36843
sa(dp5035
g5
L151L
sg6
I01
sg7
L151L
sg8
F2.36431
sa(dp5036
g5
L152L
sg6
I01
sg7
L152L
sg8
F2.36218
sa(dp5037
g5
L153L
sg6
I01
sg7
L153L
sg8
F2.35932
sa(dp5038
g5
L154L
sg6
I01
sg7
L154L
sg8
F2.35746
sa(dp5039
g5
L155L
sg6
I01
sg7
L155L
sg8
F2.35311
sa(dp5040
g5
L156L
sg6
I01
sg7
L156L
sg8
F2.35181
sa(dp5041
g5
L157L
sg6
I01
sg7
L157L
sg8
F2.34847
sa(dp5042
g5
L158L
sg6
I01
sg7
L158L
sg8
F2.34587
sa(dp5043
g5
L159L
sg6
I01
sg7
L159L
sg8
F2.3448
sa(dp5044
g5
L160L
sg6
I01
sg7
L160L
sg8
F2.34277
sa(dp5045
g5
L161L
sg6
I01
sg7
L161L
sg8
F2.33915
sa(dp5046
g5
L162L
sg6
I01
sg7
L162L
sg8
F2.33754
sa(dp5047
g5
L163L
sg6
I01
sg7
L163L
sg8
F2.33612
sa(dp5048
g5
L164L
sg6
I01
sg7
L164L
sg8
F2.33192
sa(dp5049
g5
L165L
sg6
I01
sg7
L165L
sg8
F2.32936
sa(dp5050
g5
L166L
sg6
I01
sg7
L166L
sg8
F2.32746
sa(dp5051
g5
L167L
sg6
I01
sg7
L167L
sg8
F2.32575
sa(dp5052
g5
L168L
sg6
I01
sg7
L168L
sg8
F2.3231
sa(dp5053
g5
L169L
sg6
I01
sg7
L169L
sg8
F2.32346
sa(dp5054
g5
L170L
sg6
I01
sg7
L170L
sg8
F2.32032
sa(dp5055
g5
L171L
sg6
I01
sg7
L171L
sg8
F2.31772
sa(dp5056
g5
L172L
sg6
I01
sg7
L172L
sg8
F2.31304
sa(dp5057
g5
L173L
sg6
I01
sg7
L173L
sg8
F2.31328
sa(dp5058
g5
L174L
sg6
I01
sg7
L174L
sg8
F2.31039
sa(dp5059
g5
L175L
sg6
I01
sg7
L175L
sg8
F2.30879
sa(dp5060
g5
L176L
sg6
I01
sg7
L176L
sg8
F2.30784
sa(dp5061
g5
L177L
sg6
I01
sg7
L177L
sg8
F2.3035
sa(dp5062
g5
L178L
sg6
I01
sg7
L178L
sg8
F2.30281
sa(dp5063
g5
L179L
sg6
I01
sg7
L179L
sg8
F2.29849
sa(dp5064
g5
L180L
sg6
I01
sg7
L180L
sg8
F2.29455
sa(dp5065
g5
L181L
sg6
I01
sg7
L181L
sg8
F2.29231
sa(dp5066
g5
L182L
sg6
I01
sg7
L182L
sg8
F2.29135
sa(dp5067
g5
L183L
sg6
I01
sg7
L183L
sg8
F2.2933
sa(dp5068
g5
L184L
sg6
I01
sg7
L184L
sg8
F2.28893
sa(dp5069
g5
L185L
sg6
I01
sg7
L185L
sg8
F2.28501
sa(dp5070
g5
L186L
sg6
I01
sg7
L186L
sg8
F2.28372
sa(dp5071
g5
L187L
sg6
I01
sg7
L187L
sg8
F2.28184
sa(dp5072
g5
L188L
sg6
I01
sg7
L188L
sg8
F2.27991
sa(dp5073
g5
L189L
sg6
I01
sg7
L189L
sg8
F2.27812
sa(dp5074
g5
L190L
sg6
I01
sg7
L190L
sg8
F2.27552
sa(dp5075
g5
L191L
sg6
I01
sg7
L191L
sg8
F2.27357
sa(dp5076
g5
L192L
sg6
I01
sg7
L192L
sg8
F2.27044
sa(dp5077
g5
L193L
sg6
I01
sg7
L193L
sg8
F2.26904
sa(dp5078
g5
L194L
sg6
I01
sg7
L194L
sg8
F2.2674
sa(dp5079
g5
L195L
sg6
I01
sg7
L195L
sg8
F2.26432
sa(dp5080
g5
L196L
sg6
I01
sg7
L196L
sg8
F2.2614
sa(dp5081
g5
L197L
sg6
I01
sg7
L197L
sg8
F2.2607
sa(dp5082
g5
L198L
sg6
I01
sg7
L198L
sg8
F2.25725
sa(dp5083
g5
L199L
sg6
I01
sg7
L199L
sg8
F2.25595
sa(dp5084
g5
L200L
sg6
I01
sg7
L200L
sg8
F2.25476
sa(dp5085
g5
L201L
sg6
I01
sg7
L201L
sg8
F2.25386
sa(dp5086
g5
L202L
sg6
I01
sg7
L202L
sg8
F2.24881
sa(dp5087
g5
L203L
sg6
I01
sg7
L203L
sg8
F2.24644
sa(dp5088
g5
L204L
sg6
I01
sg7
L204L
sg8
F2.24696
sa(dp5089
g5
L205L
sg6
I01
sg7
L205L
sg8
F2.24625
sa(dp5090
g5
L206L
sg6
I01
sg7
L206L
sg8
F2.24233
sa(dp5091
g5
L207L
sg6
I01
sg7
L207L
sg8
F2.13004
sa(dp5092
g5
L208L
sg6
I01
sg7
L208L
sg8
F0.00345125
sa(dp5093
g5
L209L
sg6
I01
sg7
L209L
sg8
F0.00349729
sa(dp5094
g5
L210L
sg6
I01
sg7
L210L
sg8
F0.00345266
sa(dp5095
g5
L211L
sg6
I01
sg7
L211L
sg8
F0.0
sassg4002
(lp5096
L354826L
as.